ARM GAS  C:\Users\Administrator.DESKTOP-24M4MSA\AppData\Local\Temp\ccEGYBFN.s 			page 1


   1              		.cpu cortex-m3
   2              		.eabi_attribute 20, 1
   3              		.eabi_attribute 21, 1
   4              		.eabi_attribute 23, 3
   5              		.eabi_attribute 24, 1
   6              		.eabi_attribute 25, 1
   7              		.eabi_attribute 26, 1
   8              		.eabi_attribute 30, 1
   9              		.eabi_attribute 34, 1
  10              		.eabi_attribute 18, 4
  11              		.file	"main.c"
  12              		.text
  13              	.Ltext0:
  14              		.cfi_sections	.debug_frame
  15              		.section	.text.MX_GPIO_Init,"ax",%progbits
  16              		.align	1
  17              		.arch armv7-m
  18              		.syntax unified
  19              		.thumb
  20              		.thumb_func
  21              		.fpu softvfp
  23              	MX_GPIO_Init:
  24              	.LFB72:
  25              		.file 1 "Src/main.c"
   1:Src/main.c    **** /* USER CODE BEGIN Header */
   2:Src/main.c    **** /**
   3:Src/main.c    ****  ******************************************************************************
   4:Src/main.c    ****  * @file           : main.c
   5:Src/main.c    ****  * @brief          : Main program body
   6:Src/main.c    ****  ******************************************************************************
   7:Src/main.c    ****  * @attention
   8:Src/main.c    ****  *
   9:Src/main.c    ****  * <h2><center>&copy; Copyright (c) 2021 STMicroelectronics.
  10:Src/main.c    ****  * All rights reserved.</center></h2>
  11:Src/main.c    ****  *
  12:Src/main.c    ****  * This software component is licensed by ST under BSD 3-Clause license,
  13:Src/main.c    ****  * the "License"; You may not use this file except in compliance with the
  14:Src/main.c    ****  * License. You may obtain a copy of the License at:
  15:Src/main.c    ****  *                        opensource.org/licenses/BSD-3-Clause
  16:Src/main.c    ****  *
  17:Src/main.c    ****  ******************************************************************************
  18:Src/main.c    ****  */
  19:Src/main.c    **** /* USER CODE END Header */
  20:Src/main.c    **** 
  21:Src/main.c    **** /* Includes ------------------------------------------------------------------*/
  22:Src/main.c    **** #include "main.h"
  23:Src/main.c    **** 
  24:Src/main.c    **** /* Private includes ----------------------------------------------------------*/
  25:Src/main.c    **** /* USER CODE BEGIN Includes */
  26:Src/main.c    **** /* USER CODE END Includes */
  27:Src/main.c    **** 
  28:Src/main.c    **** /* Private typedef -----------------------------------------------------------*/
  29:Src/main.c    **** /* USER CODE BEGIN PTD */
  30:Src/main.c    **** 
  31:Src/main.c    **** /* USER CODE END PTD */
  32:Src/main.c    **** 
  33:Src/main.c    **** /* Private define ------------------------------------------------------------*/
ARM GAS  C:\Users\Administrator.DESKTOP-24M4MSA\AppData\Local\Temp\ccEGYBFN.s 			page 2


  34:Src/main.c    **** /* USER CODE BEGIN PD */
  35:Src/main.c    **** // #define kp 5
  36:Src/main.c    **** // #define ki 0.1
  37:Src/main.c    **** // #define kd 2
  38:Src/main.c    **** #define i_max 6000
  39:Src/main.c    **** #define out_max 18000
  40:Src/main.c    **** /* USER CODE END PD */
  41:Src/main.c    **** 
  42:Src/main.c    **** /* Private macro -------------------------------------------------------------*/
  43:Src/main.c    **** /* USER CODE BEGIN PM */
  44:Src/main.c    **** 
  45:Src/main.c    **** /* USER CODE END PM */
  46:Src/main.c    **** 
  47:Src/main.c    **** /* Private variables ---------------------------------------------------------*/
  48:Src/main.c    **** CAN_HandleTypeDef hcan;
  49:Src/main.c    **** 
  50:Src/main.c    **** TIM_HandleTypeDef htim2;
  51:Src/main.c    **** 
  52:Src/main.c    **** UART_HandleTypeDef huart1;
  53:Src/main.c    **** UART_HandleTypeDef huart2;
  54:Src/main.c    **** DMA_HandleTypeDef hdma_usart1_rx;
  55:Src/main.c    **** 
  56:Src/main.c    **** /* USER CODE BEGIN PV */
  57:Src/main.c    **** uint8_t msg[8] = {4, 0, 4, 0, 4, 0, 4, 0};                   // CAN Bus Send Buffer
  58:Src/main.c    **** static volatile uint8_t canRX[8] = {0, 0, 0, 0, 0, 0, 0, 0}; // CAN Bus Receive Buffer
  59:Src/main.c    **** static CAN_TxHeaderTypeDef txHeader;                                // CAN Bus Receive Header
  60:Src/main.c    **** static CAN_RxHeaderTypeDef rxHeader;                         // CAN Bus Transmit Header
  61:Src/main.c    **** uint8_t dbus_rx_buffer[18]={0}; // receiver data buffer
  62:Src/main.c    **** RC_Ctl_t RC_CtrlData; // dbus channel typeder
  63:Src/main.c    **** static volatile HAL_StatusTypeDef canTxStatus = HAL_OK;
  64:Src/main.c    **** static volatile HAL_StatusTypeDef canRxStatus = HAL_OK;
  65:Src/main.c    **** uint32_t canMailbox;
  66:Src/main.c    **** uint16_t target = 600;
  67:Src/main.c    **** static volatile int16_t target_A=1200, target_B=-900, target_C=-600, target_D=850;
  68:Src/main.c    **** int vf,vr,vz,vg;
  69:Src/main.c    **** // static volatile int16_t target_A=0, target_B=0, target_C=0, target_D=0;
  70:Src/main.c    **** //A=-2, B=1.5, C=1. D=-17/12
  71:Src/main.c    **** static volatile int16_t current_rpm_A,current_rpm_B,current_rpm_C,current_rpm_D;
  72:Src/main.c    **** pid_struct_t motorA, motorB, motorC, motorD;
  73:Src/main.c    **** arm_struct_t arm;
  74:Src/main.c    **** /* USER CODE END PV */
  75:Src/main.c    **** 
  76:Src/main.c    **** /* Private function prototypes -----------------------------------------------*/
  77:Src/main.c    **** void SystemClock_Config(void);
  78:Src/main.c    **** static void MX_GPIO_Init(void);
  79:Src/main.c    **** static void MX_USART2_UART_Init(void);
  80:Src/main.c    **** static void MX_DMA_Init(void);
  81:Src/main.c    **** static void MX_CAN_Init(void);
  82:Src/main.c    **** static void MX_USART1_UART_Init(void);
  83:Src/main.c    **** static void MX_TIM2_Init(void);
  84:Src/main.c    **** /* USER CODE BEGIN PFP */
  85:Src/main.c    **** void CAN_Set_Motor_Voltage(int16_t v1_, int16_t v2_, int16_t v3_, int16_t v4_, uint8_t target_buffe
  86:Src/main.c    **** void Integrate_Contorl();
  87:Src/main.c    **** /* USER CODE END PFP */
  88:Src/main.c    **** 
  89:Src/main.c    **** /* Private user code ---------------------------------------------------------*/
  90:Src/main.c    **** /* USER CODE BEGIN 0 */
ARM GAS  C:\Users\Administrator.DESKTOP-24M4MSA\AppData\Local\Temp\ccEGYBFN.s 			page 3


  91:Src/main.c    **** 
  92:Src/main.c    **** /* USER CODE END 0 */
  93:Src/main.c    **** 
  94:Src/main.c    **** /**
  95:Src/main.c    ****   * @brief  The application entry point.
  96:Src/main.c    ****   * @retval int
  97:Src/main.c    ****   */
  98:Src/main.c    **** int main(void)
  99:Src/main.c    **** {
 100:Src/main.c    ****   /* USER CODE BEGIN 1 */
 101:Src/main.c    **** 
 102:Src/main.c    ****   /* USER CODE END 1 */
 103:Src/main.c    **** 
 104:Src/main.c    ****   /* MCU Configuration--------------------------------------------------------*/
 105:Src/main.c    **** 
 106:Src/main.c    ****   /* Reset of all peripherals, Initializes the Flash interface and the Systick. */
 107:Src/main.c    ****   HAL_Init();
 108:Src/main.c    **** 
 109:Src/main.c    ****   /* USER CODE BEGIN Init */
 110:Src/main.c    **** 
 111:Src/main.c    ****   /* USER CODE END Init */
 112:Src/main.c    **** 
 113:Src/main.c    ****   /* Configure the system clock */
 114:Src/main.c    ****   SystemClock_Config();
 115:Src/main.c    **** 
 116:Src/main.c    ****   /* USER CODE BEGIN SysInit */
 117:Src/main.c    **** 
 118:Src/main.c    ****   /* USER CODE END SysInit */
 119:Src/main.c    **** 
 120:Src/main.c    ****   /* Initialize all configured peripherals */
 121:Src/main.c    ****   MX_GPIO_Init();
 122:Src/main.c    ****   MX_USART2_UART_Init();
 123:Src/main.c    ****   MX_DMA_Init();
 124:Src/main.c    ****   MX_CAN_Init();
 125:Src/main.c    ****   MX_USART1_UART_Init();
 126:Src/main.c    ****   MX_TIM2_Init();
 127:Src/main.c    ****   /* USER CODE BEGIN 2 */
 128:Src/main.c    ****   CAN_FilterTypeDef canfil; // CAN Bus Filter
 129:Src/main.c    **** 
 130:Src/main.c    ****   canfil.FilterBank = 0;
 131:Src/main.c    ****   canfil.FilterMode = CAN_FILTERMODE_IDMASK;
 132:Src/main.c    ****   canfil.FilterFIFOAssignment = CAN_RX_FIFO1;
 133:Src/main.c    ****   canfil.FilterIdHigh = 0;
 134:Src/main.c    ****   canfil.FilterIdLow = 0;
 135:Src/main.c    ****   canfil.FilterMaskIdHigh = 0;
 136:Src/main.c    ****   canfil.FilterMaskIdLow = 0;
 137:Src/main.c    ****   canfil.FilterScale = CAN_FILTERSCALE_32BIT;
 138:Src/main.c    ****   canfil.FilterActivation = ENABLE;
 139:Src/main.c    ****   canfil.SlaveStartFilterBank = 14;
 140:Src/main.c    **** 
 141:Src/main.c    ****   txHeader.DLC = 8; // Number of bites to be transmitted max- 8
 142:Src/main.c    ****   txHeader.IDE = CAN_ID_STD;
 143:Src/main.c    ****   txHeader.RTR = CAN_RTR_DATA;
 144:Src/main.c    ****   txHeader.StdId = 0x200;
 145:Src/main.c    ****   txHeader.ExtId = 0x0;
 146:Src/main.c    ****   txHeader.TransmitGlobalTime = DISABLE;
 147:Src/main.c    **** 
ARM GAS  C:\Users\Administrator.DESKTOP-24M4MSA\AppData\Local\Temp\ccEGYBFN.s 			page 4


 148:Src/main.c    ****   HAL_CAN_ConfigFilter(&hcan, &canfil);
 149:Src/main.c    ****   HAL_CAN_Start(&hcan);
 150:Src/main.c    ****   HAL_TIM_PWM_Start(&htim2, TIM_CHANNEL_1);
 151:Src/main.c    ****   HAL_TIM_PWM_Start(&htim2, TIM_CHANNEL_2);
 152:Src/main.c    ****   HAL_TIM_PWM_Start(&htim2, TIM_CHANNEL_3);
 153:Src/main.c    ****   HAL_TIM_PWM_Start(&htim2, TIM_CHANNEL_4);
 154:Src/main.c    ****   // HAL_CAN_ActivateNotification(&hcan, CAN_IT_RX_FIFO1_MSG_PENDING);
 155:Src/main.c    ****   // HAL_CAN_GetRxMessage(&hcan, CAN_RX_FIFO0, &rxHeader, (uint8_t *)canRX);
 156:Src/main.c    ****   pid_init(&motorA, 5, 0.05, 0, 8000, 16000);
 157:Src/main.c    ****   pid_init(&motorB, 8, 1.5, 0, 8000, 16000);
 158:Src/main.c    ****   pid_init(&motorC, 8, 1.5, 0, 8000, 16000);
 159:Src/main.c    ****   pid_init(&motorD, 8, 1, 0, 8000, 16000);
 160:Src/main.c    ****   arm_init(&arm, 150, 150, 150, 150);
 161:Src/main.c    ****   HAL_UART_Receive_DMA(&huart1, dbus_rx_buffer, 18);
 162:Src/main.c    ****   /* USER CODE END 2 */
 163:Src/main.c    **** 
 164:Src/main.c    ****   /* Infinite loop */
 165:Src/main.c    ****   /* USER CODE BEGIN WHILE */
 166:Src/main.c    ****   while (1)
 167:Src/main.c    ****   {
 168:Src/main.c    ****     /* USER CODE END WHILE */
 169:Src/main.c    **** 
 170:Src/main.c    ****     /* USER CODE BEGIN 3 */
 171:Src/main.c    ****     
 172:Src/main.c    ****     canRxStatus = HAL_CAN_GetRxMessage(&hcan, CAN_RX_FIFO1, &rxHeader, (uint8_t *)canRX);
 173:Src/main.c    ****     switch(rxHeader.StdId){
 174:Src/main.c    ****       case 0x201:{
 175:Src/main.c    ****         current_rpm_A = -(1+~((canRX[2]<<8)+canRX[3]));
 176:Src/main.c    ****         break;
 177:Src/main.c    ****       }
 178:Src/main.c    ****       case 0x202:{
 179:Src/main.c    ****         current_rpm_B = -(1+~((canRX[2]<<8)+canRX[3]));
 180:Src/main.c    ****         break;
 181:Src/main.c    ****       }
 182:Src/main.c    ****       case 0x203:{
 183:Src/main.c    ****         current_rpm_C = -(1+~((canRX[2]<<8)+canRX[3]));
 184:Src/main.c    ****         break;
 185:Src/main.c    ****       }
 186:Src/main.c    ****       case 0x204:{
 187:Src/main.c    ****         current_rpm_D = -(1+~((canRX[2]<<8)+canRX[3]));
 188:Src/main.c    ****         break;
 189:Src/main.c    ****       }
 190:Src/main.c    ****     }
 191:Src/main.c    ****     move_arm(&arm,vf,vr,vz,vg);
 192:Src/main.c    ****     __HAL_TIM_SET_COMPARE(&htim2, TIM_CHANNEL_1, arm.angle[0]);
 193:Src/main.c    **** 	  __HAL_TIM_SET_COMPARE(&htim2, TIM_CHANNEL_2, arm.angle[1]>>2);
 194:Src/main.c    **** 	  __HAL_TIM_SET_COMPARE(&htim2, TIM_CHANNEL_3, arm.angle[2]>>2);
 195:Src/main.c    **** 	  __HAL_TIM_SET_COMPARE(&htim2, TIM_CHANNEL_4, arm.angle[3]);
 196:Src/main.c    ****     // HAL_Delay(1);
 197:Src/main.c    ****   }
 198:Src/main.c    ****   /* USER CODE END 3 */
 199:Src/main.c    **** }
 200:Src/main.c    **** 
 201:Src/main.c    **** /**
 202:Src/main.c    ****   * @brief System Clock Configuration
 203:Src/main.c    ****   * @retval None
 204:Src/main.c    ****   */
ARM GAS  C:\Users\Administrator.DESKTOP-24M4MSA\AppData\Local\Temp\ccEGYBFN.s 			page 5


 205:Src/main.c    **** void SystemClock_Config(void)
 206:Src/main.c    **** {
 207:Src/main.c    ****   RCC_OscInitTypeDef RCC_OscInitStruct = {0};
 208:Src/main.c    ****   RCC_ClkInitTypeDef RCC_ClkInitStruct = {0};
 209:Src/main.c    **** 
 210:Src/main.c    ****   /** Initializes the CPU, AHB and APB busses clocks
 211:Src/main.c    ****   */
 212:Src/main.c    ****   RCC_OscInitStruct.OscillatorType = RCC_OSCILLATORTYPE_HSE;
 213:Src/main.c    ****   RCC_OscInitStruct.HSEState = RCC_HSE_ON;
 214:Src/main.c    ****   RCC_OscInitStruct.HSEPredivValue = RCC_HSE_PREDIV_DIV1;
 215:Src/main.c    ****   RCC_OscInitStruct.HSIState = RCC_HSI_ON;
 216:Src/main.c    ****   RCC_OscInitStruct.PLL.PLLState = RCC_PLL_ON;
 217:Src/main.c    ****   RCC_OscInitStruct.PLL.PLLSource = RCC_PLLSOURCE_HSE;
 218:Src/main.c    ****   RCC_OscInitStruct.PLL.PLLMUL = RCC_PLL_MUL9;
 219:Src/main.c    ****   if (HAL_RCC_OscConfig(&RCC_OscInitStruct) != HAL_OK)
 220:Src/main.c    ****   {
 221:Src/main.c    ****     Error_Handler();
 222:Src/main.c    ****   }
 223:Src/main.c    ****   /** Initializes the CPU, AHB and APB busses clocks
 224:Src/main.c    ****   */
 225:Src/main.c    ****   RCC_ClkInitStruct.ClockType = RCC_CLOCKTYPE_HCLK|RCC_CLOCKTYPE_SYSCLK
 226:Src/main.c    ****                               |RCC_CLOCKTYPE_PCLK1|RCC_CLOCKTYPE_PCLK2;
 227:Src/main.c    ****   RCC_ClkInitStruct.SYSCLKSource = RCC_SYSCLKSOURCE_PLLCLK;
 228:Src/main.c    ****   RCC_ClkInitStruct.AHBCLKDivider = RCC_SYSCLK_DIV1;
 229:Src/main.c    ****   RCC_ClkInitStruct.APB1CLKDivider = RCC_HCLK_DIV2;
 230:Src/main.c    ****   RCC_ClkInitStruct.APB2CLKDivider = RCC_HCLK_DIV1;
 231:Src/main.c    **** 
 232:Src/main.c    ****   if (HAL_RCC_ClockConfig(&RCC_ClkInitStruct, FLASH_LATENCY_2) != HAL_OK)
 233:Src/main.c    ****   {
 234:Src/main.c    ****     Error_Handler();
 235:Src/main.c    ****   }
 236:Src/main.c    **** }
 237:Src/main.c    **** 
 238:Src/main.c    **** /**
 239:Src/main.c    ****   * @brief CAN Initialization Function
 240:Src/main.c    ****   * @param None
 241:Src/main.c    ****   * @retval None
 242:Src/main.c    ****   */
 243:Src/main.c    **** static void MX_CAN_Init(void)
 244:Src/main.c    **** {
 245:Src/main.c    **** 
 246:Src/main.c    ****   /* USER CODE BEGIN CAN_Init 0 */
 247:Src/main.c    **** 
 248:Src/main.c    ****   /* USER CODE END CAN_Init 0 */
 249:Src/main.c    **** 
 250:Src/main.c    ****   /* USER CODE BEGIN CAN_Init 1 */
 251:Src/main.c    **** 
 252:Src/main.c    ****   /* USER CODE END CAN_Init 1 */
 253:Src/main.c    ****   hcan.Instance = CAN1;
 254:Src/main.c    ****   hcan.Init.Prescaler = 4;
 255:Src/main.c    ****   hcan.Init.Mode = CAN_MODE_NORMAL;
 256:Src/main.c    ****   hcan.Init.SyncJumpWidth = CAN_SJW_1TQ;
 257:Src/main.c    ****   hcan.Init.TimeSeg1 = CAN_BS1_6TQ;
 258:Src/main.c    ****   hcan.Init.TimeSeg2 = CAN_BS2_2TQ;
 259:Src/main.c    ****   hcan.Init.TimeTriggeredMode = DISABLE;
 260:Src/main.c    ****   hcan.Init.AutoBusOff = DISABLE;
 261:Src/main.c    ****   hcan.Init.AutoWakeUp = DISABLE;
ARM GAS  C:\Users\Administrator.DESKTOP-24M4MSA\AppData\Local\Temp\ccEGYBFN.s 			page 6


 262:Src/main.c    ****   hcan.Init.AutoRetransmission = DISABLE;
 263:Src/main.c    ****   hcan.Init.ReceiveFifoLocked = DISABLE;
 264:Src/main.c    ****   hcan.Init.TransmitFifoPriority = DISABLE;
 265:Src/main.c    ****   if (HAL_CAN_Init(&hcan) != HAL_OK)
 266:Src/main.c    ****   {
 267:Src/main.c    ****     Error_Handler();
 268:Src/main.c    ****   }
 269:Src/main.c    ****   /* USER CODE BEGIN CAN_Init 2 */
 270:Src/main.c    **** 
 271:Src/main.c    ****   /* USER CODE END CAN_Init 2 */
 272:Src/main.c    **** 
 273:Src/main.c    **** }
 274:Src/main.c    **** 
 275:Src/main.c    **** /**
 276:Src/main.c    ****   * @brief TIM2 Initialization Function
 277:Src/main.c    ****   * @param None
 278:Src/main.c    ****   * @retval None
 279:Src/main.c    ****   */
 280:Src/main.c    **** static void MX_TIM2_Init(void)
 281:Src/main.c    **** {
 282:Src/main.c    **** 
 283:Src/main.c    ****   /* USER CODE BEGIN TIM2_Init 0 */
 284:Src/main.c    **** 
 285:Src/main.c    ****   /* USER CODE END TIM2_Init 0 */
 286:Src/main.c    **** 
 287:Src/main.c    ****   TIM_ClockConfigTypeDef sClockSourceConfig = {0};
 288:Src/main.c    ****   TIM_MasterConfigTypeDef sMasterConfig = {0};
 289:Src/main.c    ****   TIM_OC_InitTypeDef sConfigOC = {0};
 290:Src/main.c    **** 
 291:Src/main.c    ****   /* USER CODE BEGIN TIM2_Init 1 */
 292:Src/main.c    **** 
 293:Src/main.c    ****   /* USER CODE END TIM2_Init 1 */
 294:Src/main.c    ****   htim2.Instance = TIM2;
 295:Src/main.c    ****   htim2.Init.Prescaler = 719;
 296:Src/main.c    ****   htim2.Init.CounterMode = TIM_COUNTERMODE_UP;
 297:Src/main.c    ****   htim2.Init.Period = 1999;
 298:Src/main.c    ****   htim2.Init.ClockDivision = TIM_CLOCKDIVISION_DIV1;
 299:Src/main.c    ****   htim2.Init.AutoReloadPreload = TIM_AUTORELOAD_PRELOAD_DISABLE;
 300:Src/main.c    ****   if (HAL_TIM_Base_Init(&htim2) != HAL_OK)
 301:Src/main.c    ****   {
 302:Src/main.c    ****     Error_Handler();
 303:Src/main.c    ****   }
 304:Src/main.c    ****   sClockSourceConfig.ClockSource = TIM_CLOCKSOURCE_INTERNAL;
 305:Src/main.c    ****   if (HAL_TIM_ConfigClockSource(&htim2, &sClockSourceConfig) != HAL_OK)
 306:Src/main.c    ****   {
 307:Src/main.c    ****     Error_Handler();
 308:Src/main.c    ****   }
 309:Src/main.c    ****   if (HAL_TIM_PWM_Init(&htim2) != HAL_OK)
 310:Src/main.c    ****   {
 311:Src/main.c    ****     Error_Handler();
 312:Src/main.c    ****   }
 313:Src/main.c    ****   sMasterConfig.MasterOutputTrigger = TIM_TRGO_RESET;
 314:Src/main.c    ****   sMasterConfig.MasterSlaveMode = TIM_MASTERSLAVEMODE_DISABLE;
 315:Src/main.c    ****   if (HAL_TIMEx_MasterConfigSynchronization(&htim2, &sMasterConfig) != HAL_OK)
 316:Src/main.c    ****   {
 317:Src/main.c    ****     Error_Handler();
 318:Src/main.c    ****   }
ARM GAS  C:\Users\Administrator.DESKTOP-24M4MSA\AppData\Local\Temp\ccEGYBFN.s 			page 7


 319:Src/main.c    ****   sConfigOC.OCMode = TIM_OCMODE_PWM1;
 320:Src/main.c    ****   sConfigOC.Pulse = 0;
 321:Src/main.c    ****   sConfigOC.OCPolarity = TIM_OCPOLARITY_HIGH;
 322:Src/main.c    ****   sConfigOC.OCFastMode = TIM_OCFAST_DISABLE;
 323:Src/main.c    ****   if (HAL_TIM_PWM_ConfigChannel(&htim2, &sConfigOC, TIM_CHANNEL_1) != HAL_OK)
 324:Src/main.c    ****   {
 325:Src/main.c    ****     Error_Handler();
 326:Src/main.c    ****   }
 327:Src/main.c    ****   if (HAL_TIM_PWM_ConfigChannel(&htim2, &sConfigOC, TIM_CHANNEL_2) != HAL_OK)
 328:Src/main.c    ****   {
 329:Src/main.c    ****     Error_Handler();
 330:Src/main.c    ****   }
 331:Src/main.c    ****   if (HAL_TIM_PWM_ConfigChannel(&htim2, &sConfigOC, TIM_CHANNEL_3) != HAL_OK)
 332:Src/main.c    ****   {
 333:Src/main.c    ****     Error_Handler();
 334:Src/main.c    ****   }
 335:Src/main.c    ****   if (HAL_TIM_PWM_ConfigChannel(&htim2, &sConfigOC, TIM_CHANNEL_4) != HAL_OK)
 336:Src/main.c    ****   {
 337:Src/main.c    ****     Error_Handler();
 338:Src/main.c    ****   }
 339:Src/main.c    ****   /* USER CODE BEGIN TIM2_Init 2 */
 340:Src/main.c    **** 
 341:Src/main.c    ****   /* USER CODE END TIM2_Init 2 */
 342:Src/main.c    ****   HAL_TIM_MspPostInit(&htim2);
 343:Src/main.c    **** 
 344:Src/main.c    **** }
 345:Src/main.c    **** 
 346:Src/main.c    **** /**
 347:Src/main.c    ****   * @brief USART1 Initialization Function
 348:Src/main.c    ****   * @param None
 349:Src/main.c    ****   * @retval None
 350:Src/main.c    ****   */
 351:Src/main.c    **** static void MX_USART1_UART_Init(void)
 352:Src/main.c    **** {
 353:Src/main.c    **** 
 354:Src/main.c    ****   /* USER CODE BEGIN USART1_Init 0 */
 355:Src/main.c    **** 
 356:Src/main.c    ****   /* USER CODE END USART1_Init 0 */
 357:Src/main.c    **** 
 358:Src/main.c    ****   /* USER CODE BEGIN USART1_Init 1 */
 359:Src/main.c    **** 
 360:Src/main.c    ****   /* USER CODE END USART1_Init 1 */
 361:Src/main.c    ****   huart1.Instance = USART1;
 362:Src/main.c    ****   huart1.Init.BaudRate = 100000;
 363:Src/main.c    ****   huart1.Init.WordLength = UART_WORDLENGTH_8B;
 364:Src/main.c    ****   huart1.Init.StopBits = UART_STOPBITS_1;
 365:Src/main.c    ****   huart1.Init.Parity = UART_PARITY_EVEN;
 366:Src/main.c    ****   huart1.Init.Mode = UART_MODE_TX_RX;
 367:Src/main.c    ****   huart1.Init.HwFlowCtl = UART_HWCONTROL_NONE;
 368:Src/main.c    ****   huart1.Init.OverSampling = UART_OVERSAMPLING_16;
 369:Src/main.c    ****   if (HAL_UART_Init(&huart1) != HAL_OK)
 370:Src/main.c    ****   {
 371:Src/main.c    ****     Error_Handler();
 372:Src/main.c    ****   }
 373:Src/main.c    ****   /* USER CODE BEGIN USART1_Init 2 */
 374:Src/main.c    **** 
 375:Src/main.c    ****   /* USER CODE END USART1_Init 2 */
ARM GAS  C:\Users\Administrator.DESKTOP-24M4MSA\AppData\Local\Temp\ccEGYBFN.s 			page 8


 376:Src/main.c    **** 
 377:Src/main.c    **** }
 378:Src/main.c    **** 
 379:Src/main.c    **** /**
 380:Src/main.c    ****   * @brief USART2 Initialization Function
 381:Src/main.c    ****   * @param None
 382:Src/main.c    ****   * @retval None
 383:Src/main.c    ****   */
 384:Src/main.c    **** static void MX_USART2_UART_Init(void)
 385:Src/main.c    **** {
 386:Src/main.c    **** 
 387:Src/main.c    ****   /* USER CODE BEGIN USART2_Init 0 */
 388:Src/main.c    **** 
 389:Src/main.c    ****   /* USER CODE END USART2_Init 0 */
 390:Src/main.c    **** 
 391:Src/main.c    ****   /* USER CODE BEGIN USART2_Init 1 */
 392:Src/main.c    **** 
 393:Src/main.c    ****   /* USER CODE END USART2_Init 1 */
 394:Src/main.c    ****   huart2.Instance = USART2;
 395:Src/main.c    ****   huart2.Init.BaudRate = 100000;
 396:Src/main.c    ****   huart2.Init.WordLength = UART_WORDLENGTH_8B;
 397:Src/main.c    ****   huart2.Init.StopBits = UART_STOPBITS_1;
 398:Src/main.c    ****   huart2.Init.Parity = UART_PARITY_EVEN;
 399:Src/main.c    ****   huart2.Init.Mode = UART_MODE_TX_RX;
 400:Src/main.c    ****   huart2.Init.HwFlowCtl = UART_HWCONTROL_NONE;
 401:Src/main.c    ****   huart2.Init.OverSampling = UART_OVERSAMPLING_16;
 402:Src/main.c    ****   if (HAL_UART_Init(&huart2) != HAL_OK)
 403:Src/main.c    ****   {
 404:Src/main.c    ****     Error_Handler();
 405:Src/main.c    ****   }
 406:Src/main.c    ****   /* USER CODE BEGIN USART2_Init 2 */
 407:Src/main.c    **** 
 408:Src/main.c    ****   /* USER CODE END USART2_Init 2 */
 409:Src/main.c    **** 
 410:Src/main.c    **** }
 411:Src/main.c    **** 
 412:Src/main.c    **** /**
 413:Src/main.c    ****   * Enable DMA controller clock
 414:Src/main.c    ****   */
 415:Src/main.c    **** static void MX_DMA_Init(void)
 416:Src/main.c    **** {
 417:Src/main.c    **** 
 418:Src/main.c    ****   /* DMA controller clock enable */
 419:Src/main.c    ****   __HAL_RCC_DMA1_CLK_ENABLE();
 420:Src/main.c    **** 
 421:Src/main.c    ****   /* DMA interrupt init */
 422:Src/main.c    ****   /* DMA1_Channel5_IRQn interrupt configuration */
 423:Src/main.c    ****   HAL_NVIC_SetPriority(DMA1_Channel5_IRQn, 0, 0);
 424:Src/main.c    ****   HAL_NVIC_EnableIRQ(DMA1_Channel5_IRQn);
 425:Src/main.c    **** 
 426:Src/main.c    **** }
 427:Src/main.c    **** 
 428:Src/main.c    **** /**
 429:Src/main.c    ****   * @brief GPIO Initialization Function
 430:Src/main.c    ****   * @param None
 431:Src/main.c    ****   * @retval None
 432:Src/main.c    ****   */
ARM GAS  C:\Users\Administrator.DESKTOP-24M4MSA\AppData\Local\Temp\ccEGYBFN.s 			page 9


 433:Src/main.c    **** static void MX_GPIO_Init(void)
 434:Src/main.c    **** {
  26              		.loc 1 434 1 view -0
  27              		.cfi_startproc
  28              		@ args = 0, pretend = 0, frame = 32
  29              		@ frame_needed = 0, uses_anonymous_args = 0
  30 0000 30B5     		push	{r4, r5, lr}
  31              	.LCFI0:
  32              		.cfi_def_cfa_offset 12
  33              		.cfi_offset 4, -12
  34              		.cfi_offset 5, -8
  35              		.cfi_offset 14, -4
  36 0002 89B0     		sub	sp, sp, #36
  37              	.LCFI1:
  38              		.cfi_def_cfa_offset 48
 435:Src/main.c    ****   GPIO_InitTypeDef GPIO_InitStruct = {0};
  39              		.loc 1 435 3 view .LVU1
  40              		.loc 1 435 20 is_stmt 0 view .LVU2
  41 0004 0024     		movs	r4, #0
  42 0006 0494     		str	r4, [sp, #16]
  43 0008 0594     		str	r4, [sp, #20]
  44 000a 0694     		str	r4, [sp, #24]
  45 000c 0794     		str	r4, [sp, #28]
 436:Src/main.c    **** 
 437:Src/main.c    ****   /* GPIO Ports Clock Enable */
 438:Src/main.c    ****   __HAL_RCC_GPIOC_CLK_ENABLE();
  46              		.loc 1 438 3 is_stmt 1 view .LVU3
  47              	.LBB2:
  48              		.loc 1 438 3 view .LVU4
  49              		.loc 1 438 3 view .LVU5
  50 000e 1C4B     		ldr	r3, .L3
  51 0010 9A69     		ldr	r2, [r3, #24]
  52 0012 42F01002 		orr	r2, r2, #16
  53 0016 9A61     		str	r2, [r3, #24]
  54              		.loc 1 438 3 view .LVU6
  55 0018 9A69     		ldr	r2, [r3, #24]
  56 001a 02F01002 		and	r2, r2, #16
  57 001e 0092     		str	r2, [sp]
  58              		.loc 1 438 3 view .LVU7
  59 0020 009A     		ldr	r2, [sp]
  60              	.LBE2:
  61              		.loc 1 438 3 view .LVU8
 439:Src/main.c    ****   __HAL_RCC_GPIOD_CLK_ENABLE();
  62              		.loc 1 439 3 view .LVU9
  63              	.LBB3:
  64              		.loc 1 439 3 view .LVU10
  65              		.loc 1 439 3 view .LVU11
  66 0022 9A69     		ldr	r2, [r3, #24]
  67 0024 42F02002 		orr	r2, r2, #32
  68 0028 9A61     		str	r2, [r3, #24]
  69              		.loc 1 439 3 view .LVU12
  70 002a 9A69     		ldr	r2, [r3, #24]
  71 002c 02F02002 		and	r2, r2, #32
  72 0030 0192     		str	r2, [sp, #4]
  73              		.loc 1 439 3 view .LVU13
  74 0032 019A     		ldr	r2, [sp, #4]
  75              	.LBE3:
ARM GAS  C:\Users\Administrator.DESKTOP-24M4MSA\AppData\Local\Temp\ccEGYBFN.s 			page 10


  76              		.loc 1 439 3 view .LVU14
 440:Src/main.c    ****   __HAL_RCC_GPIOA_CLK_ENABLE();
  77              		.loc 1 440 3 view .LVU15
  78              	.LBB4:
  79              		.loc 1 440 3 view .LVU16
  80              		.loc 1 440 3 view .LVU17
  81 0034 9A69     		ldr	r2, [r3, #24]
  82 0036 42F00402 		orr	r2, r2, #4
  83 003a 9A61     		str	r2, [r3, #24]
  84              		.loc 1 440 3 view .LVU18
  85 003c 9A69     		ldr	r2, [r3, #24]
  86 003e 02F00402 		and	r2, r2, #4
  87 0042 0292     		str	r2, [sp, #8]
  88              		.loc 1 440 3 view .LVU19
  89 0044 029A     		ldr	r2, [sp, #8]
  90              	.LBE4:
  91              		.loc 1 440 3 view .LVU20
 441:Src/main.c    ****   __HAL_RCC_GPIOB_CLK_ENABLE();
  92              		.loc 1 441 3 view .LVU21
  93              	.LBB5:
  94              		.loc 1 441 3 view .LVU22
  95              		.loc 1 441 3 view .LVU23
  96 0046 9A69     		ldr	r2, [r3, #24]
  97 0048 42F00802 		orr	r2, r2, #8
  98 004c 9A61     		str	r2, [r3, #24]
  99              		.loc 1 441 3 view .LVU24
 100 004e 9B69     		ldr	r3, [r3, #24]
 101 0050 03F00803 		and	r3, r3, #8
 102 0054 0393     		str	r3, [sp, #12]
 103              		.loc 1 441 3 view .LVU25
 104 0056 039B     		ldr	r3, [sp, #12]
 105              	.LBE5:
 106              		.loc 1 441 3 view .LVU26
 442:Src/main.c    **** 
 443:Src/main.c    ****   /*Configure GPIO pin Output Level */
 444:Src/main.c    ****   HAL_GPIO_WritePin(LED_GPIO_Port, LED_Pin, GPIO_PIN_RESET);
 107              		.loc 1 444 3 view .LVU27
 108 0058 0A4D     		ldr	r5, .L3+4
 109 005a 2246     		mov	r2, r4
 110 005c 4FF40051 		mov	r1, #8192
 111 0060 2846     		mov	r0, r5
 112 0062 FFF7FEFF 		bl	HAL_GPIO_WritePin
 113              	.LVL0:
 445:Src/main.c    **** 
 446:Src/main.c    ****   /*Configure GPIO pin : LED_Pin */
 447:Src/main.c    ****   GPIO_InitStruct.Pin = LED_Pin;
 114              		.loc 1 447 3 view .LVU28
 115              		.loc 1 447 23 is_stmt 0 view .LVU29
 116 0066 4FF40053 		mov	r3, #8192
 117 006a 0493     		str	r3, [sp, #16]
 448:Src/main.c    ****   GPIO_InitStruct.Mode = GPIO_MODE_OUTPUT_PP;
 118              		.loc 1 448 3 is_stmt 1 view .LVU30
 119              		.loc 1 448 24 is_stmt 0 view .LVU31
 120 006c 0123     		movs	r3, #1
 121 006e 0593     		str	r3, [sp, #20]
 449:Src/main.c    ****   GPIO_InitStruct.Pull = GPIO_NOPULL;
 122              		.loc 1 449 3 is_stmt 1 view .LVU32
ARM GAS  C:\Users\Administrator.DESKTOP-24M4MSA\AppData\Local\Temp\ccEGYBFN.s 			page 11


 123              		.loc 1 449 24 is_stmt 0 view .LVU33
 124 0070 0694     		str	r4, [sp, #24]
 450:Src/main.c    ****   GPIO_InitStruct.Speed = GPIO_SPEED_FREQ_MEDIUM;
 125              		.loc 1 450 3 is_stmt 1 view .LVU34
 126              		.loc 1 450 25 is_stmt 0 view .LVU35
 127 0072 0793     		str	r3, [sp, #28]
 451:Src/main.c    ****   HAL_GPIO_Init(LED_GPIO_Port, &GPIO_InitStruct);
 128              		.loc 1 451 3 is_stmt 1 view .LVU36
 129 0074 04A9     		add	r1, sp, #16
 130 0076 2846     		mov	r0, r5
 131 0078 FFF7FEFF 		bl	HAL_GPIO_Init
 132              	.LVL1:
 452:Src/main.c    **** 
 453:Src/main.c    **** }
 133              		.loc 1 453 1 is_stmt 0 view .LVU37
 134 007c 09B0     		add	sp, sp, #36
 135              	.LCFI2:
 136              		.cfi_def_cfa_offset 12
 137              		@ sp needed
 138 007e 30BD     		pop	{r4, r5, pc}
 139              	.L4:
 140              		.align	2
 141              	.L3:
 142 0080 00100240 		.word	1073876992
 143 0084 00100140 		.word	1073811456
 144              		.cfi_endproc
 145              	.LFE72:
 147              		.section	.text.MX_USART2_UART_Init,"ax",%progbits
 148              		.align	1
 149              		.syntax unified
 150              		.thumb
 151              		.thumb_func
 152              		.fpu softvfp
 154              	MX_USART2_UART_Init:
 155              	.LFB70:
 385:Src/main.c    **** 
 156              		.loc 1 385 1 is_stmt 1 view -0
 157              		.cfi_startproc
 158              		@ args = 0, pretend = 0, frame = 0
 159              		@ frame_needed = 0, uses_anonymous_args = 0
 160 0000 08B5     		push	{r3, lr}
 161              	.LCFI3:
 162              		.cfi_def_cfa_offset 8
 163              		.cfi_offset 3, -8
 164              		.cfi_offset 14, -4
 394:Src/main.c    ****   huart2.Init.BaudRate = 100000;
 165              		.loc 1 394 3 view .LVU39
 394:Src/main.c    ****   huart2.Init.BaudRate = 100000;
 166              		.loc 1 394 19 is_stmt 0 view .LVU40
 167 0002 0948     		ldr	r0, .L7
 168 0004 094B     		ldr	r3, .L7+4
 169 0006 0360     		str	r3, [r0]
 395:Src/main.c    ****   huart2.Init.WordLength = UART_WORDLENGTH_8B;
 170              		.loc 1 395 3 is_stmt 1 view .LVU41
 395:Src/main.c    ****   huart2.Init.WordLength = UART_WORDLENGTH_8B;
 171              		.loc 1 395 24 is_stmt 0 view .LVU42
 172 0008 094B     		ldr	r3, .L7+8
ARM GAS  C:\Users\Administrator.DESKTOP-24M4MSA\AppData\Local\Temp\ccEGYBFN.s 			page 12


 173 000a 4360     		str	r3, [r0, #4]
 396:Src/main.c    ****   huart2.Init.StopBits = UART_STOPBITS_1;
 174              		.loc 1 396 3 is_stmt 1 view .LVU43
 396:Src/main.c    ****   huart2.Init.StopBits = UART_STOPBITS_1;
 175              		.loc 1 396 26 is_stmt 0 view .LVU44
 176 000c 0023     		movs	r3, #0
 177 000e 8360     		str	r3, [r0, #8]
 397:Src/main.c    ****   huart2.Init.Parity = UART_PARITY_EVEN;
 178              		.loc 1 397 3 is_stmt 1 view .LVU45
 397:Src/main.c    ****   huart2.Init.Parity = UART_PARITY_EVEN;
 179              		.loc 1 397 24 is_stmt 0 view .LVU46
 180 0010 C360     		str	r3, [r0, #12]
 398:Src/main.c    ****   huart2.Init.Mode = UART_MODE_TX_RX;
 181              		.loc 1 398 3 is_stmt 1 view .LVU47
 398:Src/main.c    ****   huart2.Init.Mode = UART_MODE_TX_RX;
 182              		.loc 1 398 22 is_stmt 0 view .LVU48
 183 0012 4FF48062 		mov	r2, #1024
 184 0016 0261     		str	r2, [r0, #16]
 399:Src/main.c    ****   huart2.Init.HwFlowCtl = UART_HWCONTROL_NONE;
 185              		.loc 1 399 3 is_stmt 1 view .LVU49
 399:Src/main.c    ****   huart2.Init.HwFlowCtl = UART_HWCONTROL_NONE;
 186              		.loc 1 399 20 is_stmt 0 view .LVU50
 187 0018 0C22     		movs	r2, #12
 188 001a 4261     		str	r2, [r0, #20]
 400:Src/main.c    ****   huart2.Init.OverSampling = UART_OVERSAMPLING_16;
 189              		.loc 1 400 3 is_stmt 1 view .LVU51
 400:Src/main.c    ****   huart2.Init.OverSampling = UART_OVERSAMPLING_16;
 190              		.loc 1 400 25 is_stmt 0 view .LVU52
 191 001c 8361     		str	r3, [r0, #24]
 401:Src/main.c    ****   if (HAL_UART_Init(&huart2) != HAL_OK)
 192              		.loc 1 401 3 is_stmt 1 view .LVU53
 401:Src/main.c    ****   if (HAL_UART_Init(&huart2) != HAL_OK)
 193              		.loc 1 401 28 is_stmt 0 view .LVU54
 194 001e C361     		str	r3, [r0, #28]
 402:Src/main.c    ****   {
 195              		.loc 1 402 3 is_stmt 1 view .LVU55
 402:Src/main.c    ****   {
 196              		.loc 1 402 7 is_stmt 0 view .LVU56
 197 0020 FFF7FEFF 		bl	HAL_UART_Init
 198              	.LVL2:
 410:Src/main.c    **** 
 199              		.loc 1 410 1 view .LVU57
 200 0024 08BD     		pop	{r3, pc}
 201              	.L8:
 202 0026 00BF     		.align	2
 203              	.L7:
 204 0028 00000000 		.word	.LANCHOR0
 205 002c 00440040 		.word	1073759232
 206 0030 A0860100 		.word	100000
 207              		.cfi_endproc
 208              	.LFE70:
 210              		.section	.text.MX_USART1_UART_Init,"ax",%progbits
 211              		.align	1
 212              		.syntax unified
 213              		.thumb
 214              		.thumb_func
 215              		.fpu softvfp
ARM GAS  C:\Users\Administrator.DESKTOP-24M4MSA\AppData\Local\Temp\ccEGYBFN.s 			page 13


 217              	MX_USART1_UART_Init:
 218              	.LFB69:
 352:Src/main.c    **** 
 219              		.loc 1 352 1 is_stmt 1 view -0
 220              		.cfi_startproc
 221              		@ args = 0, pretend = 0, frame = 0
 222              		@ frame_needed = 0, uses_anonymous_args = 0
 223 0000 08B5     		push	{r3, lr}
 224              	.LCFI4:
 225              		.cfi_def_cfa_offset 8
 226              		.cfi_offset 3, -8
 227              		.cfi_offset 14, -4
 361:Src/main.c    ****   huart1.Init.BaudRate = 100000;
 228              		.loc 1 361 3 view .LVU59
 361:Src/main.c    ****   huart1.Init.BaudRate = 100000;
 229              		.loc 1 361 19 is_stmt 0 view .LVU60
 230 0002 0948     		ldr	r0, .L11
 231 0004 094B     		ldr	r3, .L11+4
 232 0006 0360     		str	r3, [r0]
 362:Src/main.c    ****   huart1.Init.WordLength = UART_WORDLENGTH_8B;
 233              		.loc 1 362 3 is_stmt 1 view .LVU61
 362:Src/main.c    ****   huart1.Init.WordLength = UART_WORDLENGTH_8B;
 234              		.loc 1 362 24 is_stmt 0 view .LVU62
 235 0008 094B     		ldr	r3, .L11+8
 236 000a 4360     		str	r3, [r0, #4]
 363:Src/main.c    ****   huart1.Init.StopBits = UART_STOPBITS_1;
 237              		.loc 1 363 3 is_stmt 1 view .LVU63
 363:Src/main.c    ****   huart1.Init.StopBits = UART_STOPBITS_1;
 238              		.loc 1 363 26 is_stmt 0 view .LVU64
 239 000c 0023     		movs	r3, #0
 240 000e 8360     		str	r3, [r0, #8]
 364:Src/main.c    ****   huart1.Init.Parity = UART_PARITY_EVEN;
 241              		.loc 1 364 3 is_stmt 1 view .LVU65
 364:Src/main.c    ****   huart1.Init.Parity = UART_PARITY_EVEN;
 242              		.loc 1 364 24 is_stmt 0 view .LVU66
 243 0010 C360     		str	r3, [r0, #12]
 365:Src/main.c    ****   huart1.Init.Mode = UART_MODE_TX_RX;
 244              		.loc 1 365 3 is_stmt 1 view .LVU67
 365:Src/main.c    ****   huart1.Init.Mode = UART_MODE_TX_RX;
 245              		.loc 1 365 22 is_stmt 0 view .LVU68
 246 0012 4FF48062 		mov	r2, #1024
 247 0016 0261     		str	r2, [r0, #16]
 366:Src/main.c    ****   huart1.Init.HwFlowCtl = UART_HWCONTROL_NONE;
 248              		.loc 1 366 3 is_stmt 1 view .LVU69
 366:Src/main.c    ****   huart1.Init.HwFlowCtl = UART_HWCONTROL_NONE;
 249              		.loc 1 366 20 is_stmt 0 view .LVU70
 250 0018 0C22     		movs	r2, #12
 251 001a 4261     		str	r2, [r0, #20]
 367:Src/main.c    ****   huart1.Init.OverSampling = UART_OVERSAMPLING_16;
 252              		.loc 1 367 3 is_stmt 1 view .LVU71
 367:Src/main.c    ****   huart1.Init.OverSampling = UART_OVERSAMPLING_16;
 253              		.loc 1 367 25 is_stmt 0 view .LVU72
 254 001c 8361     		str	r3, [r0, #24]
 368:Src/main.c    ****   if (HAL_UART_Init(&huart1) != HAL_OK)
 255              		.loc 1 368 3 is_stmt 1 view .LVU73
 368:Src/main.c    ****   if (HAL_UART_Init(&huart1) != HAL_OK)
 256              		.loc 1 368 28 is_stmt 0 view .LVU74
ARM GAS  C:\Users\Administrator.DESKTOP-24M4MSA\AppData\Local\Temp\ccEGYBFN.s 			page 14


 257 001e C361     		str	r3, [r0, #28]
 369:Src/main.c    ****   {
 258              		.loc 1 369 3 is_stmt 1 view .LVU75
 369:Src/main.c    ****   {
 259              		.loc 1 369 7 is_stmt 0 view .LVU76
 260 0020 FFF7FEFF 		bl	HAL_UART_Init
 261              	.LVL3:
 377:Src/main.c    **** 
 262              		.loc 1 377 1 view .LVU77
 263 0024 08BD     		pop	{r3, pc}
 264              	.L12:
 265 0026 00BF     		.align	2
 266              	.L11:
 267 0028 00000000 		.word	.LANCHOR1
 268 002c 00380140 		.word	1073821696
 269 0030 A0860100 		.word	100000
 270              		.cfi_endproc
 271              	.LFE69:
 273              		.section	.text.MX_DMA_Init,"ax",%progbits
 274              		.align	1
 275              		.syntax unified
 276              		.thumb
 277              		.thumb_func
 278              		.fpu softvfp
 280              	MX_DMA_Init:
 281              	.LFB71:
 416:Src/main.c    **** 
 282              		.loc 1 416 1 is_stmt 1 view -0
 283              		.cfi_startproc
 284              		@ args = 0, pretend = 0, frame = 8
 285              		@ frame_needed = 0, uses_anonymous_args = 0
 286 0000 00B5     		push	{lr}
 287              	.LCFI5:
 288              		.cfi_def_cfa_offset 4
 289              		.cfi_offset 14, -4
 290 0002 83B0     		sub	sp, sp, #12
 291              	.LCFI6:
 292              		.cfi_def_cfa_offset 16
 419:Src/main.c    **** 
 293              		.loc 1 419 3 view .LVU79
 294              	.LBB6:
 419:Src/main.c    **** 
 295              		.loc 1 419 3 view .LVU80
 419:Src/main.c    **** 
 296              		.loc 1 419 3 view .LVU81
 297 0004 0A4B     		ldr	r3, .L15
 298 0006 5A69     		ldr	r2, [r3, #20]
 299 0008 42F00102 		orr	r2, r2, #1
 300 000c 5A61     		str	r2, [r3, #20]
 419:Src/main.c    **** 
 301              		.loc 1 419 3 view .LVU82
 302 000e 5B69     		ldr	r3, [r3, #20]
 303 0010 03F00103 		and	r3, r3, #1
 304 0014 0193     		str	r3, [sp, #4]
 419:Src/main.c    **** 
 305              		.loc 1 419 3 view .LVU83
 306 0016 019B     		ldr	r3, [sp, #4]
ARM GAS  C:\Users\Administrator.DESKTOP-24M4MSA\AppData\Local\Temp\ccEGYBFN.s 			page 15


 307              	.LBE6:
 419:Src/main.c    **** 
 308              		.loc 1 419 3 view .LVU84
 423:Src/main.c    ****   HAL_NVIC_EnableIRQ(DMA1_Channel5_IRQn);
 309              		.loc 1 423 3 view .LVU85
 310 0018 0022     		movs	r2, #0
 311 001a 1146     		mov	r1, r2
 312 001c 0F20     		movs	r0, #15
 313 001e FFF7FEFF 		bl	HAL_NVIC_SetPriority
 314              	.LVL4:
 424:Src/main.c    **** 
 315              		.loc 1 424 3 view .LVU86
 316 0022 0F20     		movs	r0, #15
 317 0024 FFF7FEFF 		bl	HAL_NVIC_EnableIRQ
 318              	.LVL5:
 426:Src/main.c    **** 
 319              		.loc 1 426 1 is_stmt 0 view .LVU87
 320 0028 03B0     		add	sp, sp, #12
 321              	.LCFI7:
 322              		.cfi_def_cfa_offset 4
 323              		@ sp needed
 324 002a 5DF804FB 		ldr	pc, [sp], #4
 325              	.L16:
 326 002e 00BF     		.align	2
 327              	.L15:
 328 0030 00100240 		.word	1073876992
 329              		.cfi_endproc
 330              	.LFE71:
 332              		.section	.text.MX_CAN_Init,"ax",%progbits
 333              		.align	1
 334              		.syntax unified
 335              		.thumb
 336              		.thumb_func
 337              		.fpu softvfp
 339              	MX_CAN_Init:
 340              	.LFB67:
 244:Src/main.c    **** 
 341              		.loc 1 244 1 is_stmt 1 view -0
 342              		.cfi_startproc
 343              		@ args = 0, pretend = 0, frame = 0
 344              		@ frame_needed = 0, uses_anonymous_args = 0
 345 0000 08B5     		push	{r3, lr}
 346              	.LCFI8:
 347              		.cfi_def_cfa_offset 8
 348              		.cfi_offset 3, -8
 349              		.cfi_offset 14, -4
 253:Src/main.c    ****   hcan.Init.Prescaler = 4;
 350              		.loc 1 253 3 view .LVU89
 253:Src/main.c    ****   hcan.Init.Prescaler = 4;
 351              		.loc 1 253 17 is_stmt 0 view .LVU90
 352 0002 0B48     		ldr	r0, .L19
 353 0004 0B4B     		ldr	r3, .L19+4
 354 0006 0360     		str	r3, [r0]
 254:Src/main.c    ****   hcan.Init.Mode = CAN_MODE_NORMAL;
 355              		.loc 1 254 3 is_stmt 1 view .LVU91
 254:Src/main.c    ****   hcan.Init.Mode = CAN_MODE_NORMAL;
 356              		.loc 1 254 23 is_stmt 0 view .LVU92
ARM GAS  C:\Users\Administrator.DESKTOP-24M4MSA\AppData\Local\Temp\ccEGYBFN.s 			page 16


 357 0008 0423     		movs	r3, #4
 358 000a 4360     		str	r3, [r0, #4]
 255:Src/main.c    ****   hcan.Init.SyncJumpWidth = CAN_SJW_1TQ;
 359              		.loc 1 255 3 is_stmt 1 view .LVU93
 255:Src/main.c    ****   hcan.Init.SyncJumpWidth = CAN_SJW_1TQ;
 360              		.loc 1 255 18 is_stmt 0 view .LVU94
 361 000c 0023     		movs	r3, #0
 362 000e 8360     		str	r3, [r0, #8]
 256:Src/main.c    ****   hcan.Init.TimeSeg1 = CAN_BS1_6TQ;
 363              		.loc 1 256 3 is_stmt 1 view .LVU95
 256:Src/main.c    ****   hcan.Init.TimeSeg1 = CAN_BS1_6TQ;
 364              		.loc 1 256 27 is_stmt 0 view .LVU96
 365 0010 C360     		str	r3, [r0, #12]
 257:Src/main.c    ****   hcan.Init.TimeSeg2 = CAN_BS2_2TQ;
 366              		.loc 1 257 3 is_stmt 1 view .LVU97
 257:Src/main.c    ****   hcan.Init.TimeSeg2 = CAN_BS2_2TQ;
 367              		.loc 1 257 22 is_stmt 0 view .LVU98
 368 0012 4FF4A022 		mov	r2, #327680
 369 0016 0261     		str	r2, [r0, #16]
 258:Src/main.c    ****   hcan.Init.TimeTriggeredMode = DISABLE;
 370              		.loc 1 258 3 is_stmt 1 view .LVU99
 258:Src/main.c    ****   hcan.Init.TimeTriggeredMode = DISABLE;
 371              		.loc 1 258 22 is_stmt 0 view .LVU100
 372 0018 4FF48012 		mov	r2, #1048576
 373 001c 4261     		str	r2, [r0, #20]
 259:Src/main.c    ****   hcan.Init.AutoBusOff = DISABLE;
 374              		.loc 1 259 3 is_stmt 1 view .LVU101
 259:Src/main.c    ****   hcan.Init.AutoBusOff = DISABLE;
 375              		.loc 1 259 31 is_stmt 0 view .LVU102
 376 001e 0376     		strb	r3, [r0, #24]
 260:Src/main.c    ****   hcan.Init.AutoWakeUp = DISABLE;
 377              		.loc 1 260 3 is_stmt 1 view .LVU103
 260:Src/main.c    ****   hcan.Init.AutoWakeUp = DISABLE;
 378              		.loc 1 260 24 is_stmt 0 view .LVU104
 379 0020 4376     		strb	r3, [r0, #25]
 261:Src/main.c    ****   hcan.Init.AutoRetransmission = DISABLE;
 380              		.loc 1 261 3 is_stmt 1 view .LVU105
 261:Src/main.c    ****   hcan.Init.AutoRetransmission = DISABLE;
 381              		.loc 1 261 24 is_stmt 0 view .LVU106
 382 0022 8376     		strb	r3, [r0, #26]
 262:Src/main.c    ****   hcan.Init.ReceiveFifoLocked = DISABLE;
 383              		.loc 1 262 3 is_stmt 1 view .LVU107
 262:Src/main.c    ****   hcan.Init.ReceiveFifoLocked = DISABLE;
 384              		.loc 1 262 32 is_stmt 0 view .LVU108
 385 0024 C376     		strb	r3, [r0, #27]
 263:Src/main.c    ****   hcan.Init.TransmitFifoPriority = DISABLE;
 386              		.loc 1 263 3 is_stmt 1 view .LVU109
 263:Src/main.c    ****   hcan.Init.TransmitFifoPriority = DISABLE;
 387              		.loc 1 263 31 is_stmt 0 view .LVU110
 388 0026 0377     		strb	r3, [r0, #28]
 264:Src/main.c    ****   if (HAL_CAN_Init(&hcan) != HAL_OK)
 389              		.loc 1 264 3 is_stmt 1 view .LVU111
 264:Src/main.c    ****   if (HAL_CAN_Init(&hcan) != HAL_OK)
 390              		.loc 1 264 34 is_stmt 0 view .LVU112
 391 0028 4377     		strb	r3, [r0, #29]
 265:Src/main.c    ****   {
 392              		.loc 1 265 3 is_stmt 1 view .LVU113
ARM GAS  C:\Users\Administrator.DESKTOP-24M4MSA\AppData\Local\Temp\ccEGYBFN.s 			page 17


 265:Src/main.c    ****   {
 393              		.loc 1 265 7 is_stmt 0 view .LVU114
 394 002a FFF7FEFF 		bl	HAL_CAN_Init
 395              	.LVL6:
 273:Src/main.c    **** 
 396              		.loc 1 273 1 view .LVU115
 397 002e 08BD     		pop	{r3, pc}
 398              	.L20:
 399              		.align	2
 400              	.L19:
 401 0030 00000000 		.word	.LANCHOR2
 402 0034 00640040 		.word	1073767424
 403              		.cfi_endproc
 404              	.LFE67:
 406              		.section	.text.MX_TIM2_Init,"ax",%progbits
 407              		.align	1
 408              		.syntax unified
 409              		.thumb
 410              		.thumb_func
 411              		.fpu softvfp
 413              	MX_TIM2_Init:
 414              	.LFB68:
 281:Src/main.c    **** 
 415              		.loc 1 281 1 is_stmt 1 view -0
 416              		.cfi_startproc
 417              		@ args = 0, pretend = 0, frame = 56
 418              		@ frame_needed = 0, uses_anonymous_args = 0
 419 0000 30B5     		push	{r4, r5, lr}
 420              	.LCFI9:
 421              		.cfi_def_cfa_offset 12
 422              		.cfi_offset 4, -12
 423              		.cfi_offset 5, -8
 424              		.cfi_offset 14, -4
 425 0002 8FB0     		sub	sp, sp, #60
 426              	.LCFI10:
 427              		.cfi_def_cfa_offset 72
 287:Src/main.c    ****   TIM_MasterConfigTypeDef sMasterConfig = {0};
 428              		.loc 1 287 3 view .LVU117
 287:Src/main.c    ****   TIM_MasterConfigTypeDef sMasterConfig = {0};
 429              		.loc 1 287 26 is_stmt 0 view .LVU118
 430 0004 0024     		movs	r4, #0
 431 0006 0A94     		str	r4, [sp, #40]
 432 0008 0B94     		str	r4, [sp, #44]
 433 000a 0C94     		str	r4, [sp, #48]
 434 000c 0D94     		str	r4, [sp, #52]
 288:Src/main.c    ****   TIM_OC_InitTypeDef sConfigOC = {0};
 435              		.loc 1 288 3 is_stmt 1 view .LVU119
 288:Src/main.c    ****   TIM_OC_InitTypeDef sConfigOC = {0};
 436              		.loc 1 288 27 is_stmt 0 view .LVU120
 437 000e 0894     		str	r4, [sp, #32]
 438 0010 0994     		str	r4, [sp, #36]
 289:Src/main.c    **** 
 439              		.loc 1 289 3 is_stmt 1 view .LVU121
 289:Src/main.c    **** 
 440              		.loc 1 289 22 is_stmt 0 view .LVU122
 441 0012 0194     		str	r4, [sp, #4]
 442 0014 0294     		str	r4, [sp, #8]
ARM GAS  C:\Users\Administrator.DESKTOP-24M4MSA\AppData\Local\Temp\ccEGYBFN.s 			page 18


 443 0016 0394     		str	r4, [sp, #12]
 444 0018 0494     		str	r4, [sp, #16]
 445 001a 0594     		str	r4, [sp, #20]
 446 001c 0694     		str	r4, [sp, #24]
 447 001e 0794     		str	r4, [sp, #28]
 294:Src/main.c    ****   htim2.Init.Prescaler = 719;
 448              		.loc 1 294 3 is_stmt 1 view .LVU123
 294:Src/main.c    ****   htim2.Init.Prescaler = 719;
 449              		.loc 1 294 18 is_stmt 0 view .LVU124
 450 0020 1F4D     		ldr	r5, .L23
 451 0022 4FF08043 		mov	r3, #1073741824
 452 0026 2B60     		str	r3, [r5]
 295:Src/main.c    ****   htim2.Init.CounterMode = TIM_COUNTERMODE_UP;
 453              		.loc 1 295 3 is_stmt 1 view .LVU125
 295:Src/main.c    ****   htim2.Init.CounterMode = TIM_COUNTERMODE_UP;
 454              		.loc 1 295 24 is_stmt 0 view .LVU126
 455 0028 40F2CF23 		movw	r3, #719
 456 002c 6B60     		str	r3, [r5, #4]
 296:Src/main.c    ****   htim2.Init.Period = 1999;
 457              		.loc 1 296 3 is_stmt 1 view .LVU127
 296:Src/main.c    ****   htim2.Init.Period = 1999;
 458              		.loc 1 296 26 is_stmt 0 view .LVU128
 459 002e AC60     		str	r4, [r5, #8]
 297:Src/main.c    ****   htim2.Init.ClockDivision = TIM_CLOCKDIVISION_DIV1;
 460              		.loc 1 297 3 is_stmt 1 view .LVU129
 297:Src/main.c    ****   htim2.Init.ClockDivision = TIM_CLOCKDIVISION_DIV1;
 461              		.loc 1 297 21 is_stmt 0 view .LVU130
 462 0030 40F2CF73 		movw	r3, #1999
 463 0034 EB60     		str	r3, [r5, #12]
 298:Src/main.c    ****   htim2.Init.AutoReloadPreload = TIM_AUTORELOAD_PRELOAD_DISABLE;
 464              		.loc 1 298 3 is_stmt 1 view .LVU131
 298:Src/main.c    ****   htim2.Init.AutoReloadPreload = TIM_AUTORELOAD_PRELOAD_DISABLE;
 465              		.loc 1 298 28 is_stmt 0 view .LVU132
 466 0036 2C61     		str	r4, [r5, #16]
 299:Src/main.c    ****   if (HAL_TIM_Base_Init(&htim2) != HAL_OK)
 467              		.loc 1 299 3 is_stmt 1 view .LVU133
 299:Src/main.c    ****   if (HAL_TIM_Base_Init(&htim2) != HAL_OK)
 468              		.loc 1 299 32 is_stmt 0 view .LVU134
 469 0038 AC61     		str	r4, [r5, #24]
 300:Src/main.c    ****   {
 470              		.loc 1 300 3 is_stmt 1 view .LVU135
 300:Src/main.c    ****   {
 471              		.loc 1 300 7 is_stmt 0 view .LVU136
 472 003a 2846     		mov	r0, r5
 473 003c FFF7FEFF 		bl	HAL_TIM_Base_Init
 474              	.LVL7:
 304:Src/main.c    ****   if (HAL_TIM_ConfigClockSource(&htim2, &sClockSourceConfig) != HAL_OK)
 475              		.loc 1 304 3 is_stmt 1 view .LVU137
 304:Src/main.c    ****   if (HAL_TIM_ConfigClockSource(&htim2, &sClockSourceConfig) != HAL_OK)
 476              		.loc 1 304 34 is_stmt 0 view .LVU138
 477 0040 4FF48053 		mov	r3, #4096
 478 0044 0A93     		str	r3, [sp, #40]
 305:Src/main.c    ****   {
 479              		.loc 1 305 3 is_stmt 1 view .LVU139
 305:Src/main.c    ****   {
 480              		.loc 1 305 7 is_stmt 0 view .LVU140
 481 0046 0AA9     		add	r1, sp, #40
ARM GAS  C:\Users\Administrator.DESKTOP-24M4MSA\AppData\Local\Temp\ccEGYBFN.s 			page 19


 482 0048 2846     		mov	r0, r5
 483 004a FFF7FEFF 		bl	HAL_TIM_ConfigClockSource
 484              	.LVL8:
 309:Src/main.c    ****   {
 485              		.loc 1 309 3 is_stmt 1 view .LVU141
 309:Src/main.c    ****   {
 486              		.loc 1 309 7 is_stmt 0 view .LVU142
 487 004e 2846     		mov	r0, r5
 488 0050 FFF7FEFF 		bl	HAL_TIM_PWM_Init
 489              	.LVL9:
 313:Src/main.c    ****   sMasterConfig.MasterSlaveMode = TIM_MASTERSLAVEMODE_DISABLE;
 490              		.loc 1 313 3 is_stmt 1 view .LVU143
 313:Src/main.c    ****   sMasterConfig.MasterSlaveMode = TIM_MASTERSLAVEMODE_DISABLE;
 491              		.loc 1 313 37 is_stmt 0 view .LVU144
 492 0054 0894     		str	r4, [sp, #32]
 314:Src/main.c    ****   if (HAL_TIMEx_MasterConfigSynchronization(&htim2, &sMasterConfig) != HAL_OK)
 493              		.loc 1 314 3 is_stmt 1 view .LVU145
 314:Src/main.c    ****   if (HAL_TIMEx_MasterConfigSynchronization(&htim2, &sMasterConfig) != HAL_OK)
 494              		.loc 1 314 33 is_stmt 0 view .LVU146
 495 0056 0994     		str	r4, [sp, #36]
 315:Src/main.c    ****   {
 496              		.loc 1 315 3 is_stmt 1 view .LVU147
 315:Src/main.c    ****   {
 497              		.loc 1 315 7 is_stmt 0 view .LVU148
 498 0058 08A9     		add	r1, sp, #32
 499 005a 2846     		mov	r0, r5
 500 005c FFF7FEFF 		bl	HAL_TIMEx_MasterConfigSynchronization
 501              	.LVL10:
 319:Src/main.c    ****   sConfigOC.Pulse = 0;
 502              		.loc 1 319 3 is_stmt 1 view .LVU149
 319:Src/main.c    ****   sConfigOC.Pulse = 0;
 503              		.loc 1 319 20 is_stmt 0 view .LVU150
 504 0060 6023     		movs	r3, #96
 505 0062 0193     		str	r3, [sp, #4]
 320:Src/main.c    ****   sConfigOC.OCPolarity = TIM_OCPOLARITY_HIGH;
 506              		.loc 1 320 3 is_stmt 1 view .LVU151
 320:Src/main.c    ****   sConfigOC.OCPolarity = TIM_OCPOLARITY_HIGH;
 507              		.loc 1 320 19 is_stmt 0 view .LVU152
 508 0064 0294     		str	r4, [sp, #8]
 321:Src/main.c    ****   sConfigOC.OCFastMode = TIM_OCFAST_DISABLE;
 509              		.loc 1 321 3 is_stmt 1 view .LVU153
 321:Src/main.c    ****   sConfigOC.OCFastMode = TIM_OCFAST_DISABLE;
 510              		.loc 1 321 24 is_stmt 0 view .LVU154
 511 0066 0394     		str	r4, [sp, #12]
 322:Src/main.c    ****   if (HAL_TIM_PWM_ConfigChannel(&htim2, &sConfigOC, TIM_CHANNEL_1) != HAL_OK)
 512              		.loc 1 322 3 is_stmt 1 view .LVU155
 322:Src/main.c    ****   if (HAL_TIM_PWM_ConfigChannel(&htim2, &sConfigOC, TIM_CHANNEL_1) != HAL_OK)
 513              		.loc 1 322 24 is_stmt 0 view .LVU156
 514 0068 0594     		str	r4, [sp, #20]
 323:Src/main.c    ****   {
 515              		.loc 1 323 3 is_stmt 1 view .LVU157
 323:Src/main.c    ****   {
 516              		.loc 1 323 7 is_stmt 0 view .LVU158
 517 006a 2246     		mov	r2, r4
 518 006c 01A9     		add	r1, sp, #4
 519 006e 2846     		mov	r0, r5
 520 0070 FFF7FEFF 		bl	HAL_TIM_PWM_ConfigChannel
ARM GAS  C:\Users\Administrator.DESKTOP-24M4MSA\AppData\Local\Temp\ccEGYBFN.s 			page 20


 521              	.LVL11:
 327:Src/main.c    ****   {
 522              		.loc 1 327 3 is_stmt 1 view .LVU159
 327:Src/main.c    ****   {
 523              		.loc 1 327 7 is_stmt 0 view .LVU160
 524 0074 0422     		movs	r2, #4
 525 0076 0DEB0201 		add	r1, sp, r2
 526 007a 2846     		mov	r0, r5
 527 007c FFF7FEFF 		bl	HAL_TIM_PWM_ConfigChannel
 528              	.LVL12:
 331:Src/main.c    ****   {
 529              		.loc 1 331 3 is_stmt 1 view .LVU161
 331:Src/main.c    ****   {
 530              		.loc 1 331 7 is_stmt 0 view .LVU162
 531 0080 0822     		movs	r2, #8
 532 0082 01A9     		add	r1, sp, #4
 533 0084 2846     		mov	r0, r5
 534 0086 FFF7FEFF 		bl	HAL_TIM_PWM_ConfigChannel
 535              	.LVL13:
 335:Src/main.c    ****   {
 536              		.loc 1 335 3 is_stmt 1 view .LVU163
 335:Src/main.c    ****   {
 537              		.loc 1 335 7 is_stmt 0 view .LVU164
 538 008a 0C22     		movs	r2, #12
 539 008c 01A9     		add	r1, sp, #4
 540 008e 2846     		mov	r0, r5
 541 0090 FFF7FEFF 		bl	HAL_TIM_PWM_ConfigChannel
 542              	.LVL14:
 342:Src/main.c    **** 
 543              		.loc 1 342 3 is_stmt 1 view .LVU165
 544 0094 2846     		mov	r0, r5
 545 0096 FFF7FEFF 		bl	HAL_TIM_MspPostInit
 546              	.LVL15:
 344:Src/main.c    **** 
 547              		.loc 1 344 1 is_stmt 0 view .LVU166
 548 009a 0FB0     		add	sp, sp, #60
 549              	.LCFI11:
 550              		.cfi_def_cfa_offset 12
 551              		@ sp needed
 552 009c 30BD     		pop	{r4, r5, pc}
 553              	.L24:
 554 009e 00BF     		.align	2
 555              	.L23:
 556 00a0 00000000 		.word	.LANCHOR3
 557              		.cfi_endproc
 558              	.LFE68:
 560              		.section	.text.SystemClock_Config,"ax",%progbits
 561              		.align	1
 562              		.global	SystemClock_Config
 563              		.syntax unified
 564              		.thumb
 565              		.thumb_func
 566              		.fpu softvfp
 568              	SystemClock_Config:
 569              	.LFB66:
 206:Src/main.c    ****   RCC_OscInitTypeDef RCC_OscInitStruct = {0};
 570              		.loc 1 206 1 is_stmt 1 view -0
ARM GAS  C:\Users\Administrator.DESKTOP-24M4MSA\AppData\Local\Temp\ccEGYBFN.s 			page 21


 571              		.cfi_startproc
 572              		@ args = 0, pretend = 0, frame = 64
 573              		@ frame_needed = 0, uses_anonymous_args = 0
 574 0000 30B5     		push	{r4, r5, lr}
 575              	.LCFI12:
 576              		.cfi_def_cfa_offset 12
 577              		.cfi_offset 4, -12
 578              		.cfi_offset 5, -8
 579              		.cfi_offset 14, -4
 580 0002 91B0     		sub	sp, sp, #68
 581              	.LCFI13:
 582              		.cfi_def_cfa_offset 80
 207:Src/main.c    ****   RCC_ClkInitTypeDef RCC_ClkInitStruct = {0};
 583              		.loc 1 207 3 view .LVU168
 207:Src/main.c    ****   RCC_ClkInitTypeDef RCC_ClkInitStruct = {0};
 584              		.loc 1 207 22 is_stmt 0 view .LVU169
 585 0004 2822     		movs	r2, #40
 586 0006 0021     		movs	r1, #0
 587 0008 06A8     		add	r0, sp, #24
 588 000a FFF7FEFF 		bl	memset
 589              	.LVL16:
 208:Src/main.c    **** 
 590              		.loc 1 208 3 is_stmt 1 view .LVU170
 208:Src/main.c    **** 
 591              		.loc 1 208 22 is_stmt 0 view .LVU171
 592 000e 0024     		movs	r4, #0
 593 0010 0194     		str	r4, [sp, #4]
 594 0012 0294     		str	r4, [sp, #8]
 595 0014 0394     		str	r4, [sp, #12]
 596 0016 0494     		str	r4, [sp, #16]
 597 0018 0594     		str	r4, [sp, #20]
 212:Src/main.c    ****   RCC_OscInitStruct.HSEState = RCC_HSE_ON;
 598              		.loc 1 212 3 is_stmt 1 view .LVU172
 212:Src/main.c    ****   RCC_OscInitStruct.HSEState = RCC_HSE_ON;
 599              		.loc 1 212 36 is_stmt 0 view .LVU173
 600 001a 0122     		movs	r2, #1
 601 001c 0692     		str	r2, [sp, #24]
 213:Src/main.c    ****   RCC_OscInitStruct.HSEPredivValue = RCC_HSE_PREDIV_DIV1;
 602              		.loc 1 213 3 is_stmt 1 view .LVU174
 213:Src/main.c    ****   RCC_OscInitStruct.HSEPredivValue = RCC_HSE_PREDIV_DIV1;
 603              		.loc 1 213 30 is_stmt 0 view .LVU175
 604 001e 4FF48033 		mov	r3, #65536
 605 0022 0793     		str	r3, [sp, #28]
 214:Src/main.c    ****   RCC_OscInitStruct.HSIState = RCC_HSI_ON;
 606              		.loc 1 214 3 is_stmt 1 view .LVU176
 215:Src/main.c    ****   RCC_OscInitStruct.PLL.PLLState = RCC_PLL_ON;
 607              		.loc 1 215 3 view .LVU177
 215:Src/main.c    ****   RCC_OscInitStruct.PLL.PLLState = RCC_PLL_ON;
 608              		.loc 1 215 30 is_stmt 0 view .LVU178
 609 0024 0A92     		str	r2, [sp, #40]
 216:Src/main.c    ****   RCC_OscInitStruct.PLL.PLLSource = RCC_PLLSOURCE_HSE;
 610              		.loc 1 216 3 is_stmt 1 view .LVU179
 216:Src/main.c    ****   RCC_OscInitStruct.PLL.PLLSource = RCC_PLLSOURCE_HSE;
 611              		.loc 1 216 34 is_stmt 0 view .LVU180
 612 0026 0225     		movs	r5, #2
 613 0028 0D95     		str	r5, [sp, #52]
 217:Src/main.c    ****   RCC_OscInitStruct.PLL.PLLMUL = RCC_PLL_MUL9;
ARM GAS  C:\Users\Administrator.DESKTOP-24M4MSA\AppData\Local\Temp\ccEGYBFN.s 			page 22


 614              		.loc 1 217 3 is_stmt 1 view .LVU181
 217:Src/main.c    ****   RCC_OscInitStruct.PLL.PLLMUL = RCC_PLL_MUL9;
 615              		.loc 1 217 35 is_stmt 0 view .LVU182
 616 002a 0E93     		str	r3, [sp, #56]
 218:Src/main.c    ****   if (HAL_RCC_OscConfig(&RCC_OscInitStruct) != HAL_OK)
 617              		.loc 1 218 3 is_stmt 1 view .LVU183
 218:Src/main.c    ****   if (HAL_RCC_OscConfig(&RCC_OscInitStruct) != HAL_OK)
 618              		.loc 1 218 32 is_stmt 0 view .LVU184
 619 002c 4FF4E013 		mov	r3, #1835008
 620 0030 0F93     		str	r3, [sp, #60]
 219:Src/main.c    ****   {
 621              		.loc 1 219 3 is_stmt 1 view .LVU185
 219:Src/main.c    ****   {
 622              		.loc 1 219 7 is_stmt 0 view .LVU186
 623 0032 06A8     		add	r0, sp, #24
 624 0034 FFF7FEFF 		bl	HAL_RCC_OscConfig
 625              	.LVL17:
 225:Src/main.c    ****                               |RCC_CLOCKTYPE_PCLK1|RCC_CLOCKTYPE_PCLK2;
 626              		.loc 1 225 3 is_stmt 1 view .LVU187
 225:Src/main.c    ****                               |RCC_CLOCKTYPE_PCLK1|RCC_CLOCKTYPE_PCLK2;
 627              		.loc 1 225 31 is_stmt 0 view .LVU188
 628 0038 0F23     		movs	r3, #15
 629 003a 0193     		str	r3, [sp, #4]
 227:Src/main.c    ****   RCC_ClkInitStruct.AHBCLKDivider = RCC_SYSCLK_DIV1;
 630              		.loc 1 227 3 is_stmt 1 view .LVU189
 227:Src/main.c    ****   RCC_ClkInitStruct.AHBCLKDivider = RCC_SYSCLK_DIV1;
 631              		.loc 1 227 34 is_stmt 0 view .LVU190
 632 003c 0295     		str	r5, [sp, #8]
 228:Src/main.c    ****   RCC_ClkInitStruct.APB1CLKDivider = RCC_HCLK_DIV2;
 633              		.loc 1 228 3 is_stmt 1 view .LVU191
 228:Src/main.c    ****   RCC_ClkInitStruct.APB1CLKDivider = RCC_HCLK_DIV2;
 634              		.loc 1 228 35 is_stmt 0 view .LVU192
 635 003e 0394     		str	r4, [sp, #12]
 229:Src/main.c    ****   RCC_ClkInitStruct.APB2CLKDivider = RCC_HCLK_DIV1;
 636              		.loc 1 229 3 is_stmt 1 view .LVU193
 229:Src/main.c    ****   RCC_ClkInitStruct.APB2CLKDivider = RCC_HCLK_DIV1;
 637              		.loc 1 229 36 is_stmt 0 view .LVU194
 638 0040 4FF48063 		mov	r3, #1024
 639 0044 0493     		str	r3, [sp, #16]
 230:Src/main.c    **** 
 640              		.loc 1 230 3 is_stmt 1 view .LVU195
 230:Src/main.c    **** 
 641              		.loc 1 230 36 is_stmt 0 view .LVU196
 642 0046 0594     		str	r4, [sp, #20]
 232:Src/main.c    ****   {
 643              		.loc 1 232 3 is_stmt 1 view .LVU197
 232:Src/main.c    ****   {
 644              		.loc 1 232 7 is_stmt 0 view .LVU198
 645 0048 2946     		mov	r1, r5
 646 004a 01A8     		add	r0, sp, #4
 647 004c FFF7FEFF 		bl	HAL_RCC_ClockConfig
 648              	.LVL18:
 236:Src/main.c    **** 
 649              		.loc 1 236 1 view .LVU199
 650 0050 11B0     		add	sp, sp, #68
 651              	.LCFI14:
 652              		.cfi_def_cfa_offset 12
ARM GAS  C:\Users\Administrator.DESKTOP-24M4MSA\AppData\Local\Temp\ccEGYBFN.s 			page 23


 653              		@ sp needed
 654 0052 30BD     		pop	{r4, r5, pc}
 655              		.cfi_endproc
 656              	.LFE66:
 658              		.section	.text.main,"ax",%progbits
 659              		.align	1
 660              		.global	main
 661              		.syntax unified
 662              		.thumb
 663              		.thumb_func
 664              		.fpu softvfp
 666              	main:
 667              	.LFB65:
  99:Src/main.c    ****   /* USER CODE BEGIN 1 */
 668              		.loc 1 99 1 is_stmt 1 view -0
 669              		.cfi_startproc
 670              		@ Volatile: function does not return.
 671              		@ args = 0, pretend = 0, frame = 40
 672              		@ frame_needed = 0, uses_anonymous_args = 0
 673 0000 80B5     		push	{r7, lr}
 674              	.LCFI15:
 675              		.cfi_def_cfa_offset 8
 676              		.cfi_offset 7, -8
 677              		.cfi_offset 14, -4
 678 0002 8CB0     		sub	sp, sp, #48
 679              	.LCFI16:
 680              		.cfi_def_cfa_offset 56
 107:Src/main.c    **** 
 681              		.loc 1 107 3 view .LVU201
 682 0004 FFF7FEFF 		bl	HAL_Init
 683              	.LVL19:
 114:Src/main.c    **** 
 684              		.loc 1 114 3 view .LVU202
 685 0008 FFF7FEFF 		bl	SystemClock_Config
 686              	.LVL20:
 121:Src/main.c    ****   MX_USART2_UART_Init();
 687              		.loc 1 121 3 view .LVU203
 688 000c FFF7FEFF 		bl	MX_GPIO_Init
 689              	.LVL21:
 122:Src/main.c    ****   MX_DMA_Init();
 690              		.loc 1 122 3 view .LVU204
 691 0010 FFF7FEFF 		bl	MX_USART2_UART_Init
 692              	.LVL22:
 123:Src/main.c    ****   MX_CAN_Init();
 693              		.loc 1 123 3 view .LVU205
 694 0014 FFF7FEFF 		bl	MX_DMA_Init
 695              	.LVL23:
 124:Src/main.c    ****   MX_USART1_UART_Init();
 696              		.loc 1 124 3 view .LVU206
 697 0018 FFF7FEFF 		bl	MX_CAN_Init
 698              	.LVL24:
 125:Src/main.c    ****   MX_TIM2_Init();
 699              		.loc 1 125 3 view .LVU207
 700 001c FFF7FEFF 		bl	MX_USART1_UART_Init
 701              	.LVL25:
 126:Src/main.c    ****   /* USER CODE BEGIN 2 */
 702              		.loc 1 126 3 view .LVU208
ARM GAS  C:\Users\Administrator.DESKTOP-24M4MSA\AppData\Local\Temp\ccEGYBFN.s 			page 24


 703 0020 FFF7FEFF 		bl	MX_TIM2_Init
 704              	.LVL26:
 128:Src/main.c    **** 
 705              		.loc 1 128 3 view .LVU209
 130:Src/main.c    ****   canfil.FilterMode = CAN_FILTERMODE_IDMASK;
 706              		.loc 1 130 3 view .LVU210
 130:Src/main.c    ****   canfil.FilterMode = CAN_FILTERMODE_IDMASK;
 707              		.loc 1 130 21 is_stmt 0 view .LVU211
 708 0024 0024     		movs	r4, #0
 709 0026 0794     		str	r4, [sp, #28]
 131:Src/main.c    ****   canfil.FilterFIFOAssignment = CAN_RX_FIFO1;
 710              		.loc 1 131 3 is_stmt 1 view .LVU212
 131:Src/main.c    ****   canfil.FilterFIFOAssignment = CAN_RX_FIFO1;
 711              		.loc 1 131 21 is_stmt 0 view .LVU213
 712 0028 0894     		str	r4, [sp, #32]
 132:Src/main.c    ****   canfil.FilterIdHigh = 0;
 713              		.loc 1 132 3 is_stmt 1 view .LVU214
 132:Src/main.c    ****   canfil.FilterIdHigh = 0;
 714              		.loc 1 132 31 is_stmt 0 view .LVU215
 715 002a 0123     		movs	r3, #1
 716 002c 0693     		str	r3, [sp, #24]
 133:Src/main.c    ****   canfil.FilterIdLow = 0;
 717              		.loc 1 133 3 is_stmt 1 view .LVU216
 133:Src/main.c    ****   canfil.FilterIdLow = 0;
 718              		.loc 1 133 23 is_stmt 0 view .LVU217
 719 002e 0294     		str	r4, [sp, #8]
 134:Src/main.c    ****   canfil.FilterMaskIdHigh = 0;
 720              		.loc 1 134 3 is_stmt 1 view .LVU218
 134:Src/main.c    ****   canfil.FilterMaskIdHigh = 0;
 721              		.loc 1 134 22 is_stmt 0 view .LVU219
 722 0030 0394     		str	r4, [sp, #12]
 135:Src/main.c    ****   canfil.FilterMaskIdLow = 0;
 723              		.loc 1 135 3 is_stmt 1 view .LVU220
 135:Src/main.c    ****   canfil.FilterMaskIdLow = 0;
 724              		.loc 1 135 27 is_stmt 0 view .LVU221
 725 0032 0494     		str	r4, [sp, #16]
 136:Src/main.c    ****   canfil.FilterScale = CAN_FILTERSCALE_32BIT;
 726              		.loc 1 136 3 is_stmt 1 view .LVU222
 136:Src/main.c    ****   canfil.FilterScale = CAN_FILTERSCALE_32BIT;
 727              		.loc 1 136 26 is_stmt 0 view .LVU223
 728 0034 0594     		str	r4, [sp, #20]
 137:Src/main.c    ****   canfil.FilterActivation = ENABLE;
 729              		.loc 1 137 3 is_stmt 1 view .LVU224
 137:Src/main.c    ****   canfil.FilterActivation = ENABLE;
 730              		.loc 1 137 22 is_stmt 0 view .LVU225
 731 0036 0993     		str	r3, [sp, #36]
 138:Src/main.c    ****   canfil.SlaveStartFilterBank = 14;
 732              		.loc 1 138 3 is_stmt 1 view .LVU226
 138:Src/main.c    ****   canfil.SlaveStartFilterBank = 14;
 733              		.loc 1 138 27 is_stmt 0 view .LVU227
 734 0038 0A93     		str	r3, [sp, #40]
 139:Src/main.c    **** 
 735              		.loc 1 139 3 is_stmt 1 view .LVU228
 139:Src/main.c    **** 
 736              		.loc 1 139 31 is_stmt 0 view .LVU229
 737 003a 0E23     		movs	r3, #14
 738 003c 0B93     		str	r3, [sp, #44]
ARM GAS  C:\Users\Administrator.DESKTOP-24M4MSA\AppData\Local\Temp\ccEGYBFN.s 			page 25


 141:Src/main.c    ****   txHeader.IDE = CAN_ID_STD;
 739              		.loc 1 141 3 is_stmt 1 view .LVU230
 141:Src/main.c    ****   txHeader.IDE = CAN_ID_STD;
 740              		.loc 1 141 16 is_stmt 0 view .LVU231
 741 003e 574B     		ldr	r3, .L36
 742 0040 0826     		movs	r6, #8
 743 0042 1E61     		str	r6, [r3, #16]
 142:Src/main.c    ****   txHeader.RTR = CAN_RTR_DATA;
 744              		.loc 1 142 3 is_stmt 1 view .LVU232
 142:Src/main.c    ****   txHeader.RTR = CAN_RTR_DATA;
 745              		.loc 1 142 16 is_stmt 0 view .LVU233
 746 0044 9C60     		str	r4, [r3, #8]
 143:Src/main.c    ****   txHeader.StdId = 0x200;
 747              		.loc 1 143 3 is_stmt 1 view .LVU234
 143:Src/main.c    ****   txHeader.StdId = 0x200;
 748              		.loc 1 143 16 is_stmt 0 view .LVU235
 749 0046 DC60     		str	r4, [r3, #12]
 144:Src/main.c    ****   txHeader.ExtId = 0x0;
 750              		.loc 1 144 3 is_stmt 1 view .LVU236
 144:Src/main.c    ****   txHeader.ExtId = 0x0;
 751              		.loc 1 144 18 is_stmt 0 view .LVU237
 752 0048 4FF40072 		mov	r2, #512
 753 004c 1A60     		str	r2, [r3]
 145:Src/main.c    ****   txHeader.TransmitGlobalTime = DISABLE;
 754              		.loc 1 145 3 is_stmt 1 view .LVU238
 145:Src/main.c    ****   txHeader.TransmitGlobalTime = DISABLE;
 755              		.loc 1 145 18 is_stmt 0 view .LVU239
 756 004e 5C60     		str	r4, [r3, #4]
 146:Src/main.c    **** 
 757              		.loc 1 146 3 is_stmt 1 view .LVU240
 146:Src/main.c    **** 
 758              		.loc 1 146 31 is_stmt 0 view .LVU241
 759 0050 1C75     		strb	r4, [r3, #20]
 148:Src/main.c    ****   HAL_CAN_Start(&hcan);
 760              		.loc 1 148 3 is_stmt 1 view .LVU242
 761 0052 534D     		ldr	r5, .L36+4
 762 0054 0DEB0601 		add	r1, sp, r6
 763 0058 2846     		mov	r0, r5
 764 005a FFF7FEFF 		bl	HAL_CAN_ConfigFilter
 765              	.LVL27:
 149:Src/main.c    ****   HAL_TIM_PWM_Start(&htim2, TIM_CHANNEL_1);
 766              		.loc 1 149 3 view .LVU243
 767 005e 2846     		mov	r0, r5
 768 0060 FFF7FEFF 		bl	HAL_CAN_Start
 769              	.LVL28:
 150:Src/main.c    ****   HAL_TIM_PWM_Start(&htim2, TIM_CHANNEL_2);
 770              		.loc 1 150 3 view .LVU244
 771 0064 4F4D     		ldr	r5, .L36+8
 772 0066 2146     		mov	r1, r4
 773 0068 2846     		mov	r0, r5
 774 006a FFF7FEFF 		bl	HAL_TIM_PWM_Start
 775              	.LVL29:
 151:Src/main.c    ****   HAL_TIM_PWM_Start(&htim2, TIM_CHANNEL_3);
 776              		.loc 1 151 3 view .LVU245
 777 006e 0421     		movs	r1, #4
 778 0070 2846     		mov	r0, r5
 779 0072 FFF7FEFF 		bl	HAL_TIM_PWM_Start
ARM GAS  C:\Users\Administrator.DESKTOP-24M4MSA\AppData\Local\Temp\ccEGYBFN.s 			page 26


 780              	.LVL30:
 152:Src/main.c    ****   HAL_TIM_PWM_Start(&htim2, TIM_CHANNEL_4);
 781              		.loc 1 152 3 view .LVU246
 782 0076 3146     		mov	r1, r6
 783 0078 2846     		mov	r0, r5
 784 007a FFF7FEFF 		bl	HAL_TIM_PWM_Start
 785              	.LVL31:
 153:Src/main.c    ****   // HAL_CAN_ActivateNotification(&hcan, CAN_IT_RX_FIFO1_MSG_PENDING);
 786              		.loc 1 153 3 view .LVU247
 787 007e 0C21     		movs	r1, #12
 788 0080 2846     		mov	r0, r5
 789 0082 FFF7FEFF 		bl	HAL_TIM_PWM_Start
 790              	.LVL32:
 156:Src/main.c    ****   pid_init(&motorB, 8, 1.5, 0, 8000, 16000);
 791              		.loc 1 156 3 view .LVU248
 792 0086 0024     		movs	r4, #0
 793 0088 474E     		ldr	r6, .L36+12
 794 008a 0196     		str	r6, [sp, #4]	@ float
 795 008c 474D     		ldr	r5, .L36+16
 796 008e 0095     		str	r5, [sp]	@ float
 797 0090 2346     		mov	r3, r4
 798 0092 474A     		ldr	r2, .L36+20
 799 0094 4749     		ldr	r1, .L36+24
 800 0096 4848     		ldr	r0, .L36+28
 801 0098 FFF7FEFF 		bl	pid_init
 802              	.LVL33:
 157:Src/main.c    ****   pid_init(&motorC, 8, 1.5, 0, 8000, 16000);
 803              		.loc 1 157 3 view .LVU249
 804 009c 4FF07F58 		mov	r8, #1069547520
 805 00a0 4FF08247 		mov	r7, #1090519040
 806 00a4 0196     		str	r6, [sp, #4]	@ float
 807 00a6 0095     		str	r5, [sp]	@ float
 808 00a8 2346     		mov	r3, r4
 809 00aa 4246     		mov	r2, r8
 810 00ac 3946     		mov	r1, r7
 811 00ae 4348     		ldr	r0, .L36+32
 812 00b0 FFF7FEFF 		bl	pid_init
 813              	.LVL34:
 158:Src/main.c    ****   pid_init(&motorD, 8, 1, 0, 8000, 16000);
 814              		.loc 1 158 3 view .LVU250
 815 00b4 0196     		str	r6, [sp, #4]	@ float
 816 00b6 0095     		str	r5, [sp]	@ float
 817 00b8 2346     		mov	r3, r4
 818 00ba 4246     		mov	r2, r8
 819 00bc 3946     		mov	r1, r7
 820 00be 4048     		ldr	r0, .L36+36
 821 00c0 FFF7FEFF 		bl	pid_init
 822              	.LVL35:
 159:Src/main.c    ****   arm_init(&arm, 150, 150, 150, 150);
 823              		.loc 1 159 3 view .LVU251
 824 00c4 0196     		str	r6, [sp, #4]	@ float
 825 00c6 0095     		str	r5, [sp]	@ float
 826 00c8 2346     		mov	r3, r4
 827 00ca 4FF07E52 		mov	r2, #1065353216
 828 00ce 3946     		mov	r1, r7
 829 00d0 3C48     		ldr	r0, .L36+40
 830 00d2 FFF7FEFF 		bl	pid_init
ARM GAS  C:\Users\Administrator.DESKTOP-24M4MSA\AppData\Local\Temp\ccEGYBFN.s 			page 27


 831              	.LVL36:
 160:Src/main.c    ****   HAL_UART_Receive_DMA(&huart1, dbus_rx_buffer, 18);
 832              		.loc 1 160 3 view .LVU252
 833 00d6 9621     		movs	r1, #150
 834 00d8 0091     		str	r1, [sp]
 835 00da 0B46     		mov	r3, r1
 836 00dc 0A46     		mov	r2, r1
 837 00de 3A48     		ldr	r0, .L36+44
 838 00e0 FFF7FEFF 		bl	arm_init
 839              	.LVL37:
 161:Src/main.c    ****   /* USER CODE END 2 */
 840              		.loc 1 161 3 view .LVU253
 841 00e4 1222     		movs	r2, #18
 842 00e6 3949     		ldr	r1, .L36+48
 843 00e8 3948     		ldr	r0, .L36+52
 844 00ea FFF7FEFF 		bl	HAL_UART_Receive_DMA
 845              	.LVL38:
 846 00ee 20E0     		b	.L34
 847              	.L33:
 175:Src/main.c    ****         break;
 848              		.loc 1 175 9 view .LVU254
 175:Src/main.c    ****         break;
 849              		.loc 1 175 37 is_stmt 0 view .LVU255
 850 00f0 384A     		ldr	r2, .L36+56
 851 00f2 9178     		ldrb	r1, [r2, #2]	@ zero_extendqisi2
 175:Src/main.c    ****         break;
 852              		.loc 1 175 50 view .LVU256
 853 00f4 D378     		ldrb	r3, [r2, #3]	@ zero_extendqisi2
 175:Src/main.c    ****         break;
 854              		.loc 1 175 25 view .LVU257
 855 00f6 03EB0123 		add	r3, r3, r1, lsl #8
 856 00fa 1BB2     		sxth	r3, r3
 175:Src/main.c    ****         break;
 857              		.loc 1 175 23 view .LVU258
 858 00fc 364A     		ldr	r2, .L36+60
 859 00fe 1380     		strh	r3, [r2]	@ movhi
 176:Src/main.c    ****       }
 860              		.loc 1 176 9 is_stmt 1 view .LVU259
 861              	.L28:
 191:Src/main.c    ****     __HAL_TIM_SET_COMPARE(&htim2, TIM_CHANNEL_1, arm.angle[0]);
 862              		.loc 1 191 5 view .LVU260
 863 0100 314C     		ldr	r4, .L36+44
 864 0102 364B     		ldr	r3, .L36+64
 865 0104 1B68     		ldr	r3, [r3]
 866 0106 0093     		str	r3, [sp]
 867 0108 354B     		ldr	r3, .L36+68
 868 010a 1B68     		ldr	r3, [r3]
 869 010c 354A     		ldr	r2, .L36+72
 870 010e 1268     		ldr	r2, [r2]
 871 0110 3549     		ldr	r1, .L36+76
 872 0112 0968     		ldr	r1, [r1]
 873 0114 2046     		mov	r0, r4
 874 0116 FFF7FEFF 		bl	move_arm
 875              	.LVL39:
 192:Src/main.c    **** 	  __HAL_TIM_SET_COMPARE(&htim2, TIM_CHANNEL_2, arm.angle[1]>>2);
 876              		.loc 1 192 5 view .LVU261
 877 011a 224B     		ldr	r3, .L36+8
ARM GAS  C:\Users\Administrator.DESKTOP-24M4MSA\AppData\Local\Temp\ccEGYBFN.s 			page 28


 878 011c 1B68     		ldr	r3, [r3]
 879 011e 2288     		ldrh	r2, [r4]
 880 0120 5A63     		str	r2, [r3, #52]
 193:Src/main.c    **** 	  __HAL_TIM_SET_COMPARE(&htim2, TIM_CHANNEL_3, arm.angle[2]>>2);
 881              		.loc 1 193 4 view .LVU262
 882 0122 6288     		ldrh	r2, [r4, #2]
 883 0124 9208     		lsrs	r2, r2, #2
 884 0126 9A63     		str	r2, [r3, #56]
 194:Src/main.c    **** 	  __HAL_TIM_SET_COMPARE(&htim2, TIM_CHANNEL_4, arm.angle[3]);
 885              		.loc 1 194 4 view .LVU263
 886 0128 A288     		ldrh	r2, [r4, #4]
 887 012a 9208     		lsrs	r2, r2, #2
 888 012c DA63     		str	r2, [r3, #60]
 195:Src/main.c    ****     // HAL_Delay(1);
 889              		.loc 1 195 4 view .LVU264
 890 012e E288     		ldrh	r2, [r4, #6]
 891 0130 1A64     		str	r2, [r3, #64]
 166:Src/main.c    ****   {
 892              		.loc 1 166 9 view .LVU265
 893              	.L34:
 166:Src/main.c    ****   {
 894              		.loc 1 166 3 view .LVU266
 172:Src/main.c    ****     switch(rxHeader.StdId){
 895              		.loc 1 172 5 view .LVU267
 172:Src/main.c    ****     switch(rxHeader.StdId){
 896              		.loc 1 172 19 is_stmt 0 view .LVU268
 897 0132 2E4C     		ldr	r4, .L36+80
 898 0134 274B     		ldr	r3, .L36+56
 899 0136 2246     		mov	r2, r4
 900 0138 0121     		movs	r1, #1
 901 013a 1948     		ldr	r0, .L36+4
 902 013c FFF7FEFF 		bl	HAL_CAN_GetRxMessage
 903              	.LVL40:
 172:Src/main.c    ****     switch(rxHeader.StdId){
 904              		.loc 1 172 17 view .LVU269
 905 0140 2B4B     		ldr	r3, .L36+84
 906 0142 1870     		strb	r0, [r3]
 173:Src/main.c    ****       case 0x201:{
 907              		.loc 1 173 5 is_stmt 1 view .LVU270
 173:Src/main.c    ****       case 0x201:{
 908              		.loc 1 173 20 is_stmt 0 view .LVU271
 909 0144 2368     		ldr	r3, [r4]
 173:Src/main.c    ****       case 0x201:{
 910              		.loc 1 173 5 view .LVU272
 911 0146 A3F20123 		subw	r3, r3, #513
 912 014a 032B     		cmp	r3, #3
 913 014c D8D8     		bhi	.L28
 914 014e 01A2     		adr	r2, .L30
 915 0150 52F823F0 		ldr	pc, [r2, r3, lsl #2]
 916              		.p2align 2
 917              	.L30:
 918 0154 F1000000 		.word	.L33+1
 919 0158 65010000 		.word	.L32+1
 920 015c 77010000 		.word	.L31+1
 921 0160 89010000 		.word	.L29+1
 922              		.p2align 1
 923              	.L32:
ARM GAS  C:\Users\Administrator.DESKTOP-24M4MSA\AppData\Local\Temp\ccEGYBFN.s 			page 29


 179:Src/main.c    ****         break;
 924              		.loc 1 179 9 is_stmt 1 view .LVU273
 179:Src/main.c    ****         break;
 925              		.loc 1 179 37 is_stmt 0 view .LVU274
 926 0164 1B4A     		ldr	r2, .L36+56
 927 0166 9178     		ldrb	r1, [r2, #2]	@ zero_extendqisi2
 179:Src/main.c    ****         break;
 928              		.loc 1 179 50 view .LVU275
 929 0168 D378     		ldrb	r3, [r2, #3]	@ zero_extendqisi2
 179:Src/main.c    ****         break;
 930              		.loc 1 179 25 view .LVU276
 931 016a 03EB0123 		add	r3, r3, r1, lsl #8
 932 016e 1BB2     		sxth	r3, r3
 179:Src/main.c    ****         break;
 933              		.loc 1 179 23 view .LVU277
 934 0170 204A     		ldr	r2, .L36+88
 935 0172 1380     		strh	r3, [r2]	@ movhi
 180:Src/main.c    ****       }
 936              		.loc 1 180 9 is_stmt 1 view .LVU278
 937 0174 C4E7     		b	.L28
 938              	.L31:
 183:Src/main.c    ****         break;
 939              		.loc 1 183 9 view .LVU279
 183:Src/main.c    ****         break;
 940              		.loc 1 183 37 is_stmt 0 view .LVU280
 941 0176 174A     		ldr	r2, .L36+56
 942 0178 9178     		ldrb	r1, [r2, #2]	@ zero_extendqisi2
 183:Src/main.c    ****         break;
 943              		.loc 1 183 50 view .LVU281
 944 017a D378     		ldrb	r3, [r2, #3]	@ zero_extendqisi2
 183:Src/main.c    ****         break;
 945              		.loc 1 183 25 view .LVU282
 946 017c 03EB0123 		add	r3, r3, r1, lsl #8
 947 0180 1BB2     		sxth	r3, r3
 183:Src/main.c    ****         break;
 948              		.loc 1 183 23 view .LVU283
 949 0182 1D4A     		ldr	r2, .L36+92
 950 0184 1380     		strh	r3, [r2]	@ movhi
 184:Src/main.c    ****       }
 951              		.loc 1 184 9 is_stmt 1 view .LVU284
 952 0186 BBE7     		b	.L28
 953              	.L29:
 187:Src/main.c    ****         break;
 954              		.loc 1 187 9 view .LVU285
 187:Src/main.c    ****         break;
 955              		.loc 1 187 37 is_stmt 0 view .LVU286
 956 0188 124A     		ldr	r2, .L36+56
 957 018a 9178     		ldrb	r1, [r2, #2]	@ zero_extendqisi2
 187:Src/main.c    ****         break;
 958              		.loc 1 187 50 view .LVU287
 959 018c D378     		ldrb	r3, [r2, #3]	@ zero_extendqisi2
 187:Src/main.c    ****         break;
 960              		.loc 1 187 25 view .LVU288
 961 018e 03EB0123 		add	r3, r3, r1, lsl #8
 962 0192 1BB2     		sxth	r3, r3
 187:Src/main.c    ****         break;
 963              		.loc 1 187 23 view .LVU289
ARM GAS  C:\Users\Administrator.DESKTOP-24M4MSA\AppData\Local\Temp\ccEGYBFN.s 			page 30


 964 0194 194A     		ldr	r2, .L36+96
 965 0196 1380     		strh	r3, [r2]	@ movhi
 188:Src/main.c    ****       }
 966              		.loc 1 188 9 is_stmt 1 view .LVU290
 967 0198 B2E7     		b	.L28
 968              	.L37:
 969 019a 00BF     		.align	2
 970              	.L36:
 971 019c 00000000 		.word	.LANCHOR4
 972 01a0 00000000 		.word	.LANCHOR2
 973 01a4 00000000 		.word	.LANCHOR3
 974 01a8 00007A46 		.word	1182400512
 975 01ac 0000FA45 		.word	1174011904
 976 01b0 CDCC4C3D 		.word	1028443341
 977 01b4 0000A040 		.word	1084227584
 978 01b8 00000000 		.word	.LANCHOR5
 979 01bc 00000000 		.word	.LANCHOR6
 980 01c0 00000000 		.word	.LANCHOR7
 981 01c4 00000000 		.word	.LANCHOR8
 982 01c8 00000000 		.word	.LANCHOR9
 983 01cc 00000000 		.word	.LANCHOR10
 984 01d0 00000000 		.word	.LANCHOR1
 985 01d4 00000000 		.word	.LANCHOR11
 986 01d8 00000000 		.word	.LANCHOR14
 987 01dc 00000000 		.word	.LANCHOR21
 988 01e0 00000000 		.word	.LANCHOR18
 989 01e4 00000000 		.word	.LANCHOR19
 990 01e8 00000000 		.word	.LANCHOR20
 991 01ec 00000000 		.word	.LANCHOR12
 992 01f0 00000000 		.word	.LANCHOR13
 993 01f4 00000000 		.word	.LANCHOR15
 994 01f8 00000000 		.word	.LANCHOR16
 995 01fc 00000000 		.word	.LANCHOR17
 996              		.cfi_endproc
 997              	.LFE65:
 999              		.section	.text.CAN_Set_Motor_Voltage,"ax",%progbits
 1000              		.align	1
 1001              		.global	CAN_Set_Motor_Voltage
 1002              		.syntax unified
 1003              		.thumb
 1004              		.thumb_func
 1005              		.fpu softvfp
 1007              	CAN_Set_Motor_Voltage:
 1008              	.LVL41:
 1009              	.LFB74:
 454:Src/main.c    **** 
 455:Src/main.c    **** /* USER CODE BEGIN 4 */
 456:Src/main.c    **** void HAL_UART_RxCpltCallback(UART_HandleTypeDef * huart)
 457:Src/main.c    **** {
 458:Src/main.c    **** 			if(dbus_rx_buffer == NULL)
 459:Src/main.c    **** 			{
 460:Src/main.c    **** 			  return;
 461:Src/main.c    **** 			}
 462:Src/main.c    **** 			RC_CtrlData.rc.ch0 = ((int16_t)dbus_rx_buffer[0] | ((int16_t)dbus_rx_buffer[1] << 8)) & 0x07FF;
 463:Src/main.c    **** 			RC_CtrlData.rc.ch1 = (((int16_t)dbus_rx_buffer[1] >> 3) | ((int16_t)dbus_rx_buffer[2] << 5))& 0x
 464:Src/main.c    **** 			RC_CtrlData.rc.ch2 = (((int16_t)dbus_rx_buffer[2] >> 6) | ((int16_t)dbus_rx_buffer[3] << 2) |((i
 465:Src/main.c    **** 			RC_CtrlData.rc.ch3 = (((int16_t)dbus_rx_buffer[4] >> 1) | ((int16_t)dbus_rx_buffer[5]<<7)) &0x07
ARM GAS  C:\Users\Administrator.DESKTOP-24M4MSA\AppData\Local\Temp\ccEGYBFN.s 			page 31


 466:Src/main.c    ****  		  RC_CtrlData.rc.s1 = ((dbus_rx_buffer[5] >> 4) & 0x000C) >> 2;
 467:Src/main.c    ****    		RC_CtrlData.rc.s2 = ((dbus_rx_buffer[5] >> 4) & 0x0003);
 468:Src/main.c    **** 			// RC_CtrlData.mouse.x = ((int16_t)dbus_rx_buffer[6]) | ((int16_t)dbus_rx_buffer[7] << 8);
 469:Src/main.c    **** 			// RC_CtrlData.mouse.y = ((int16_t)dbus_rx_buffer[8]) | ((int16_t)dbus_rx_buffer[9] << 8);
 470:Src/main.c    **** 			// RC_CtrlData.mouse.z = ((int16_t)dbus_rx_buffer[10]) | ((int16_t)dbus_rx_buffer[11] << 8);
 471:Src/main.c    **** 			// RC_CtrlData.mouse.press_l = dbus_rx_buffer[12];
 472:Src/main.c    **** 			// RC_CtrlData.mouse.press_r = dbus_rx_buffer[13];
 473:Src/main.c    **** 			// RC_CtrlData.key.v = ((int16_t)dbus_rx_buffer[14]);// | ((int16_t)pData[15] << 8);
 474:Src/main.c    **** 			//HAL_UART_Receive_IT(&huart3, dbus_rx_buffer, 18);
 475:Src/main.c    **** 			//HAL_UART_Receive_DMA(&huart3, dbus_rx_buffer, 18);
 476:Src/main.c    ****       Integrate_Contorl();
 477:Src/main.c    **** }
 478:Src/main.c    **** // void HAL_CAN_RxFIFO1MsgPendingCallback(CAN_HandleTypeDef *hcan){
 479:Src/main.c    **** //   for(int i=0;i<6;i++){
 480:Src/main.c    **** //     HAL_GPIO_TogglePin(GPIOC, GPIO_PIN_13);
 481:Src/main.c    **** //     HAL_Delay(200);
 482:Src/main.c    **** //   }
 483:Src/main.c    **** //   if (HAL_CAN_GetRxMessage(hcan, CAN_RX_FIFO1, &rxHeader, (uint8_t *)canRX) != HAL_OK){
 484:Src/main.c    **** //     Error_Handler();
 485:Src/main.c    **** //     HAL_CAN_ActivateNotification(hcan, CAN_IT_RX_FIFO1_MSG_PENDING);
 486:Src/main.c    **** //     canRxStatus = HAL_ERROR;
 487:Src/main.c    **** //   }
 488:Src/main.c    **** //   else{
 489:Src/main.c    **** //     // HAL_CAN_ActivateNotification(&hcan, CAN_IT_RX_FIFO1_MSG_PENDING);
 490:Src/main.c    **** //     switch(rxHeader.StdId){
 491:Src/main.c    **** //       case 0x201:{
 492:Src/main.c    **** //         current_rpm_A = -(1+~((canRX[2]<<8)+canRX[3]));
 493:Src/main.c    **** //         break;
 494:Src/main.c    **** //       }
 495:Src/main.c    **** //       case 0x202:{
 496:Src/main.c    **** //         current_rpm_B = -(1+~((canRX[2]<<8)+canRX[3]));
 497:Src/main.c    **** //         break;
 498:Src/main.c    **** //       }
 499:Src/main.c    **** //       case 0x203:{
 500:Src/main.c    **** //         current_rpm_C = -(1+~((canRX[2]<<8)+canRX[3]));
 501:Src/main.c    **** //         break;
 502:Src/main.c    **** //       }
 503:Src/main.c    **** //       case 0x204:{
 504:Src/main.c    **** //         current_rpm_D = -(1+~((canRX[2]<<8)+canRX[3]));
 505:Src/main.c    **** //         break;
 506:Src/main.c    **** //       }
 507:Src/main.c    **** //     }
 508:Src/main.c    **** //     CAN_Set_Motor_Voltage(pid_calc(&motorA,target_A,current_rpm_A),
 509:Src/main.c    **** //                           pid_calc(&motorB,target_B,current_rpm_B),
 510:Src/main.c    **** //                           pid_calc(&motorC,target_C,current_rpm_C),
 511:Src/main.c    **** //                           pid_calc(&motorD,target_D,current_rpm_D),
 512:Src/main.c    **** //                           msg);
 513:Src/main.c    **** //     canTxStatus = HAL_CAN_AddTxMessage(hcan, &txHeader, msg, &canMailbox);
 514:Src/main.c    **** //     HAL_Delay(5);
 515:Src/main.c    **** //     canRxStatus = HAL_OK;
 516:Src/main.c    **** //   }
 517:Src/main.c    **** // }
 518:Src/main.c    **** /* 
 519:Src/main.c    **** void HAL_CAN_RxFIFO1FullCallback(CAN_HandleTypeDef *hcan){
 520:Src/main.c    ****   for(int i=0;i<6;i++){
 521:Src/main.c    ****     HAL_GPIO_TogglePin(GPIOC, GPIO_PIN_13);
 522:Src/main.c    ****     HAL_Delay(200);
ARM GAS  C:\Users\Administrator.DESKTOP-24M4MSA\AppData\Local\Temp\ccEGYBFN.s 			page 32


 523:Src/main.c    ****   }
 524:Src/main.c    ****   if (HAL_CAN_GetRxMessage(hcan, CAN_RX_FIFO1, &rxHeader, (uint8_t *)canRX) != HAL_OK){
 525:Src/main.c    ****     Error_Handler();
 526:Src/main.c    ****     HAL_CAN_ActivateNotification(hcan, CAN_IT_RX_FIFO1_MSG_PENDING);
 527:Src/main.c    ****     canRxStatus = HAL_ERROR;
 528:Src/main.c    ****   }
 529:Src/main.c    ****   else{
 530:Src/main.c    ****     switch(rxHeader.StdId){
 531:Src/main.c    ****       case 0x201:{
 532:Src/main.c    ****         current_rpm_A = -(1+~((canRX[2]<<8)+canRX[3]));
 533:Src/main.c    ****         break;
 534:Src/main.c    ****       }
 535:Src/main.c    ****       case 0x202:{
 536:Src/main.c    ****         current_rpm_B = -(1+~((canRX[2]<<8)+canRX[3]));
 537:Src/main.c    ****         break;
 538:Src/main.c    ****       }
 539:Src/main.c    ****       case 0x203:{
 540:Src/main.c    ****         current_rpm_C = -(1+~((canRX[2]<<8)+canRX[3]));
 541:Src/main.c    ****         break;
 542:Src/main.c    ****       }
 543:Src/main.c    ****       case 0x204:{
 544:Src/main.c    ****         current_rpm_D = -(1+~((canRX[2]<<8)+canRX[3]));
 545:Src/main.c    ****         break;
 546:Src/main.c    ****       }
 547:Src/main.c    ****     }
 548:Src/main.c    ****     CAN_Set_Motor_Voltage(pid_calc(&motorA,target_A,current_rpm_A),
 549:Src/main.c    ****                           pid_calc(&motorB,target_B,current_rpm_B),
 550:Src/main.c    ****                           pid_calc(&motorC,target_C,current_rpm_C),
 551:Src/main.c    ****                           pid_calc(&motorD,target_D,current_rpm_D),
 552:Src/main.c    ****                           msg);
 553:Src/main.c    ****     canTxStatus = HAL_CAN_AddTxMessage(hcan, &txHeader, msg, &canMailbox);
 554:Src/main.c    ****     HAL_Delay(5);
 555:Src/main.c    ****     canRxStatus = HAL_OK;
 556:Src/main.c    ****     HAL_CAN_ActivateNotification(&hcan, CAN_IT_RX_FIFO1_MSG_PENDING);
 557:Src/main.c    ****   }
 558:Src/main.c    **** } */
 559:Src/main.c    **** void CAN_Set_Motor_Voltage(int16_t v1_, int16_t v2_, int16_t v3_, int16_t v4_, uint8_t target_buffe
 1010              		.loc 1 559 104 view -0
 1011              		.cfi_startproc
 1012              		@ args = 4, pretend = 0, frame = 0
 1013              		@ frame_needed = 0, uses_anonymous_args = 0
 1014              		@ link register save eliminated.
 1015              		.loc 1 559 104 is_stmt 0 view .LVU292
 1016 0000 10B4     		push	{r4}
 1017              	.LCFI17:
 1018              		.cfi_def_cfa_offset 4
 1019              		.cfi_offset 4, -4
 1020 0002 019C     		ldr	r4, [sp, #4]
 560:Src/main.c    ****   uint16_t v1=v1_,v2=v2_,v3=v3_,v4=v4_;
 1021              		.loc 1 560 3 is_stmt 1 view .LVU293
 1022              	.LVL42:
 561:Src/main.c    ****   target_buffer[0] = v1 >> 8;
 1023              		.loc 1 561 3 view .LVU294
 1024              		.loc 1 561 20 is_stmt 0 view .LVU295
 1025 0004 C0F3072C 		ubfx	ip, r0, #8, #8
 1026 0008 84F800C0 		strb	ip, [r4]
 562:Src/main.c    ****   target_buffer[1] = v1;
ARM GAS  C:\Users\Administrator.DESKTOP-24M4MSA\AppData\Local\Temp\ccEGYBFN.s 			page 33


 1027              		.loc 1 562 3 is_stmt 1 view .LVU296
 1028              		.loc 1 562 20 is_stmt 0 view .LVU297
 1029 000c 6070     		strb	r0, [r4, #1]
 563:Src/main.c    ****   target_buffer[2] = v2 >> 8;
 1030              		.loc 1 563 3 is_stmt 1 view .LVU298
 1031              		.loc 1 563 20 is_stmt 0 view .LVU299
 1032 000e C1F30720 		ubfx	r0, r1, #8, #8
 1033              	.LVL43:
 1034              		.loc 1 563 20 view .LVU300
 1035 0012 A070     		strb	r0, [r4, #2]
 564:Src/main.c    ****   target_buffer[3] = v2;
 1036              		.loc 1 564 3 is_stmt 1 view .LVU301
 1037              		.loc 1 564 20 is_stmt 0 view .LVU302
 1038 0014 E170     		strb	r1, [r4, #3]
 565:Src/main.c    ****   target_buffer[4] = v3 >> 8;
 1039              		.loc 1 565 3 is_stmt 1 view .LVU303
 1040              		.loc 1 565 20 is_stmt 0 view .LVU304
 1041 0016 C2F30721 		ubfx	r1, r2, #8, #8
 1042              	.LVL44:
 1043              		.loc 1 565 20 view .LVU305
 1044 001a 2171     		strb	r1, [r4, #4]
 566:Src/main.c    ****   target_buffer[5] = v3;
 1045              		.loc 1 566 3 is_stmt 1 view .LVU306
 1046              		.loc 1 566 20 is_stmt 0 view .LVU307
 1047 001c 6271     		strb	r2, [r4, #5]
 567:Src/main.c    ****   target_buffer[6] = v4 >> 8;
 1048              		.loc 1 567 3 is_stmt 1 view .LVU308
 1049              		.loc 1 567 20 is_stmt 0 view .LVU309
 1050 001e C3F30722 		ubfx	r2, r3, #8, #8
 1051              	.LVL45:
 1052              		.loc 1 567 20 view .LVU310
 1053 0022 A271     		strb	r2, [r4, #6]
 568:Src/main.c    ****   target_buffer[7] = v4;
 1054              		.loc 1 568 3 is_stmt 1 view .LVU311
 1055              		.loc 1 568 20 is_stmt 0 view .LVU312
 1056 0024 E371     		strb	r3, [r4, #7]
 569:Src/main.c    ****   return;
 1057              		.loc 1 569 3 is_stmt 1 view .LVU313
 570:Src/main.c    **** }
 1058              		.loc 1 570 1 is_stmt 0 view .LVU314
 1059 0026 10BC     		pop	{r4}
 1060              	.LCFI18:
 1061              		.cfi_restore 4
 1062              		.cfi_def_cfa_offset 0
 1063              	.LVL46:
 1064              		.loc 1 570 1 view .LVU315
 1065 0028 7047     		bx	lr
 1066              		.cfi_endproc
 1067              	.LFE74:
 1069              		.global	__aeabi_i2d
 1070              		.global	__aeabi_dmul
 1071              		.global	__aeabi_dadd
 1072              		.global	__aeabi_d2iz
 1073              		.global	__aeabi_i2f
 1074              		.global	__aeabi_f2iz
 1075              		.section	.text.Integrate_Contorl,"ax",%progbits
 1076              		.align	1
ARM GAS  C:\Users\Administrator.DESKTOP-24M4MSA\AppData\Local\Temp\ccEGYBFN.s 			page 34


 1077              		.global	Integrate_Contorl
 1078              		.syntax unified
 1079              		.thumb
 1080              		.thumb_func
 1081              		.fpu softvfp
 1083              	Integrate_Contorl:
 1084              	.LFB75:
 571:Src/main.c    **** void Integrate_Contorl(){
 1085              		.loc 1 571 25 is_stmt 1 view -0
 1086              		.cfi_startproc
 1087              		@ args = 0, pretend = 0, frame = 0
 1088              		@ frame_needed = 0, uses_anonymous_args = 0
 1089 0000 2DE9F047 		push	{r4, r5, r6, r7, r8, r9, r10, lr}
 1090              	.LCFI19:
 1091              		.cfi_def_cfa_offset 32
 1092              		.cfi_offset 4, -32
 1093              		.cfi_offset 5, -28
 1094              		.cfi_offset 6, -24
 1095              		.cfi_offset 7, -20
 1096              		.cfi_offset 8, -16
 1097              		.cfi_offset 9, -12
 1098              		.cfi_offset 10, -8
 1099              		.cfi_offset 14, -4
 1100 0004 82B0     		sub	sp, sp, #8
 1101              	.LCFI20:
 1102              		.cfi_def_cfa_offset 40
 572:Src/main.c    ****   switch(RC_CtrlData.rc.s2){
 1103              		.loc 1 572 3 view .LVU317
 1104              		.loc 1 572 24 is_stmt 0 view .LVU318
 1105 0006 6A4B     		ldr	r3, .L58+24
 1106 0008 5B7A     		ldrb	r3, [r3, #9]	@ zero_extendqisi2
 1107              		.loc 1 572 3 view .LVU319
 1108 000a 012B     		cmp	r3, #1
 1109 000c 05D0     		beq	.L41
 1110 000e 022B     		cmp	r3, #2
 1111 0010 00F0F480 		beq	.L42
 1112              	.L40:
 573:Src/main.c    ****     case 1:{
 574:Src/main.c    ****       //A=2, B=-1.5, C=-1. D=17/12
 575:Src/main.c    ****       int vv,vp,vr;
 576:Src/main.c    ****       vv=(RC_CtrlData.rc.ch3-1024)*4;
 577:Src/main.c    ****       vp=(RC_CtrlData.rc.ch2-1024)*4;
 578:Src/main.c    ****       vr=(RC_CtrlData.rc.ch0-1024)*4;
 579:Src/main.c    ****       vr+=vp*0.05;
 580:Src/main.c    ****       target_A=(vv+vp+vr)*(1.8);
 581:Src/main.c    ****       target_B=(vv-vp-vr)*(-1.7);
 582:Src/main.c    ****       target_C=(vv+vp-vr)*(-1);
 583:Src/main.c    ****       target_D=(vv-vp+vr)*(1.5);
 584:Src/main.c    ****       CAN_Set_Motor_Voltage(pid_calc(&motorA,target_A,current_rpm_A),
 585:Src/main.c    ****                           pid_calc(&motorB,target_B,current_rpm_B),
 586:Src/main.c    ****                           pid_calc(&motorC,target_C,current_rpm_C),
 587:Src/main.c    ****                           pid_calc(&motorD,target_D,current_rpm_D),
 588:Src/main.c    ****                           msg);
 589:Src/main.c    ****       canTxStatus = HAL_CAN_AddTxMessage(&hcan, &txHeader, msg, &canMailbox);
 590:Src/main.c    ****       break;
 591:Src/main.c    ****     }
 592:Src/main.c    ****     case 2:{
ARM GAS  C:\Users\Administrator.DESKTOP-24M4MSA\AppData\Local\Temp\ccEGYBFN.s 			page 35


 593:Src/main.c    ****       int vp=(RC_CtrlData.rc.ch2-1024);
 594:Src/main.c    ****       target_A=vp*(1.8);
 595:Src/main.c    ****       target_B=vp*(1.7);
 596:Src/main.c    ****       target_C=vp*(-1);
 597:Src/main.c    ****       target_D=vp*(-1.5);
 598:Src/main.c    ****       CAN_Set_Motor_Voltage(pid_calc(&motorA,target_A,current_rpm_A),
 599:Src/main.c    ****                           pid_calc(&motorB,target_B,current_rpm_B),
 600:Src/main.c    ****                           pid_calc(&motorC,target_C,current_rpm_C),
 601:Src/main.c    ****                           pid_calc(&motorD,target_D,current_rpm_D),
 602:Src/main.c    ****                           msg);
 603:Src/main.c    ****       canTxStatus = HAL_CAN_AddTxMessage(&hcan, &txHeader, msg, &canMailbox);
 604:Src/main.c    ****       vf=(RC_CtrlData.rc.ch3>1024)?1:((RC_CtrlData.rc.ch3<1024)?-1:0);
 605:Src/main.c    ****       vr=(RC_CtrlData.rc.ch2>1024)?148:((RC_CtrlData.rc.ch2<1024)?152:150);
 606:Src/main.c    ****       vz=(RC_CtrlData.rc.ch1>1024)?1:((RC_CtrlData.rc.ch1<1024)?-1:0);
 607:Src/main.c    ****       vg=(RC_CtrlData.rc.s1>1)?vg++:((RC_CtrlData.rc.s1=1)?vg--:0);
 608:Src/main.c    ****       LIMIT_MIN_MAX(vg,50,250);
 609:Src/main.c    ****       break;
 610:Src/main.c    ****     }
 611:Src/main.c    ****   }
 612:Src/main.c    **** }
 1113              		.loc 1 612 1 view .LVU320
 1114 0014 02B0     		add	sp, sp, #8
 1115              	.LCFI21:
 1116              		.cfi_remember_state
 1117              		.cfi_def_cfa_offset 32
 1118              		@ sp needed
 1119 0016 BDE8F087 		pop	{r4, r5, r6, r7, r8, r9, r10, pc}
 1120              	.L41:
 1121              	.LCFI22:
 1122              		.cfi_restore_state
 1123              	.LBB7:
 575:Src/main.c    ****       vv=(RC_CtrlData.rc.ch3-1024)*4;
 1124              		.loc 1 575 7 is_stmt 1 view .LVU321
 576:Src/main.c    ****       vp=(RC_CtrlData.rc.ch2-1024)*4;
 1125              		.loc 1 576 7 view .LVU322
 576:Src/main.c    ****       vp=(RC_CtrlData.rc.ch2-1024)*4;
 1126              		.loc 1 576 25 is_stmt 0 view .LVU323
 1127 001a 654B     		ldr	r3, .L58+24
 1128 001c DC88     		ldrh	r4, [r3, #6]
 576:Src/main.c    ****       vp=(RC_CtrlData.rc.ch2-1024)*4;
 1129              		.loc 1 576 29 view .LVU324
 1130 001e A4F58064 		sub	r4, r4, #1024
 576:Src/main.c    ****       vp=(RC_CtrlData.rc.ch2-1024)*4;
 1131              		.loc 1 576 9 view .LVU325
 1132 0022 A400     		lsls	r4, r4, #2
 1133              	.LVL47:
 577:Src/main.c    ****       vr=(RC_CtrlData.rc.ch0-1024)*4;
 1134              		.loc 1 577 7 is_stmt 1 view .LVU326
 577:Src/main.c    ****       vr=(RC_CtrlData.rc.ch0-1024)*4;
 1135              		.loc 1 577 25 is_stmt 0 view .LVU327
 1136 0024 B3F80490 		ldrh	r9, [r3, #4]
 577:Src/main.c    ****       vr=(RC_CtrlData.rc.ch0-1024)*4;
 1137              		.loc 1 577 29 view .LVU328
 1138 0028 A9F58069 		sub	r9, r9, #1024
 577:Src/main.c    ****       vr=(RC_CtrlData.rc.ch0-1024)*4;
 1139              		.loc 1 577 9 view .LVU329
 1140 002c 4FEA8909 		lsl	r9, r9, #2
ARM GAS  C:\Users\Administrator.DESKTOP-24M4MSA\AppData\Local\Temp\ccEGYBFN.s 			page 36


 1141              	.LVL48:
 578:Src/main.c    ****       vr+=vp*0.05;
 1142              		.loc 1 578 7 is_stmt 1 view .LVU330
 578:Src/main.c    ****       vr+=vp*0.05;
 1143              		.loc 1 578 25 is_stmt 0 view .LVU331
 1144 0030 1D88     		ldrh	r5, [r3]
 578:Src/main.c    ****       vr+=vp*0.05;
 1145              		.loc 1 578 29 view .LVU332
 1146 0032 A5F58065 		sub	r5, r5, #1024
 578:Src/main.c    ****       vr+=vp*0.05;
 1147              		.loc 1 578 9 view .LVU333
 1148 0036 AD00     		lsls	r5, r5, #2
 1149              	.LVL49:
 579:Src/main.c    ****       target_A=(vv+vp+vr)*(1.8);
 1150              		.loc 1 579 7 is_stmt 1 view .LVU334
 579:Src/main.c    ****       target_A=(vv+vp+vr)*(1.8);
 1151              		.loc 1 579 13 is_stmt 0 view .LVU335
 1152 0038 4846     		mov	r0, r9
 1153 003a FFF7FEFF 		bl	__aeabi_i2d
 1154              	.LVL50:
 1155 003e 56A3     		adr	r3, .L58
 1156 0040 D3E90023 		ldrd	r2, [r3]
 1157 0044 FFF7FEFF 		bl	__aeabi_dmul
 1158              	.LVL51:
 1159 0048 0646     		mov	r6, r0
 1160 004a 0F46     		mov	r7, r1
 579:Src/main.c    ****       target_A=(vv+vp+vr)*(1.8);
 1161              		.loc 1 579 9 view .LVU336
 1162 004c 2846     		mov	r0, r5
 1163 004e FFF7FEFF 		bl	__aeabi_i2d
 1164              	.LVL52:
 1165 0052 3246     		mov	r2, r6
 1166 0054 3B46     		mov	r3, r7
 1167 0056 FFF7FEFF 		bl	__aeabi_dadd
 1168              	.LVL53:
 1169 005a FFF7FEFF 		bl	__aeabi_d2iz
 1170              	.LVL54:
 1171 005e 0546     		mov	r5, r0
 1172              	.LVL55:
 580:Src/main.c    ****       target_B=(vv-vp-vr)*(-1.7);
 1173              		.loc 1 580 7 is_stmt 1 view .LVU337
 580:Src/main.c    ****       target_B=(vv-vp-vr)*(-1.7);
 1174              		.loc 1 580 19 is_stmt 0 view .LVU338
 1175 0060 04EB0900 		add	r0, r4, r9
 1176              	.LVL56:
 580:Src/main.c    ****       target_B=(vv-vp-vr)*(-1.7);
 1177              		.loc 1 580 26 view .LVU339
 1178 0064 2844     		add	r0, r0, r5
 1179 0066 FFF7FEFF 		bl	__aeabi_i2d
 1180              	.LVL57:
 1181 006a 4DA3     		adr	r3, .L58+8
 1182 006c D3E90023 		ldrd	r2, [r3]
 1183 0070 FFF7FEFF 		bl	__aeabi_dmul
 1184              	.LVL58:
 580:Src/main.c    ****       target_B=(vv-vp-vr)*(-1.7);
 1185              		.loc 1 580 15 view .LVU340
 1186 0074 FFF7FEFF 		bl	__aeabi_d2iz
ARM GAS  C:\Users\Administrator.DESKTOP-24M4MSA\AppData\Local\Temp\ccEGYBFN.s 			page 37


 1187              	.LVL59:
 1188 0078 00B2     		sxth	r0, r0
 1189 007a 4E4F     		ldr	r7, .L58+28
 1190 007c 3880     		strh	r0, [r7]	@ movhi
 581:Src/main.c    ****       target_C=(vv+vp-vr)*(-1);
 1191              		.loc 1 581 7 is_stmt 1 view .LVU341
 581:Src/main.c    ****       target_C=(vv+vp-vr)*(-1);
 1192              		.loc 1 581 19 is_stmt 0 view .LVU342
 1193 007e A4EB0908 		sub	r8, r4, r9
 581:Src/main.c    ****       target_C=(vv+vp-vr)*(-1);
 1194              		.loc 1 581 26 view .LVU343
 1195 0082 A8EB0500 		sub	r0, r8, r5
 1196 0086 FFF7FEFF 		bl	__aeabi_i2d
 1197              	.LVL60:
 1198 008a 47A3     		adr	r3, .L58+16
 1199 008c D3E90023 		ldrd	r2, [r3]
 1200 0090 FFF7FEFF 		bl	__aeabi_dmul
 1201              	.LVL61:
 581:Src/main.c    ****       target_C=(vv+vp-vr)*(-1);
 1202              		.loc 1 581 15 view .LVU344
 1203 0094 FFF7FEFF 		bl	__aeabi_d2iz
 1204              	.LVL62:
 1205 0098 00B2     		sxth	r0, r0
 1206 009a 474E     		ldr	r6, .L58+32
 1207 009c 3080     		strh	r0, [r6]	@ movhi
 582:Src/main.c    ****       target_D=(vv-vp+vr)*(1.5);
 1208              		.loc 1 582 7 is_stmt 1 view .LVU345
 582:Src/main.c    ****       target_D=(vv-vp+vr)*(1.5);
 1209              		.loc 1 582 19 is_stmt 0 view .LVU346
 1210 009e 4C44     		add	r4, r4, r9
 1211              	.LVL63:
 582:Src/main.c    ****       target_D=(vv-vp+vr)*(1.5);
 1212              		.loc 1 582 19 view .LVU347
 1213 00a0 A4B2     		uxth	r4, r4
 582:Src/main.c    ****       target_D=(vv-vp+vr)*(1.5);
 1214              		.loc 1 582 26 view .LVU348
 1215 00a2 2C1B     		subs	r4, r5, r4
 1216 00a4 24B2     		sxth	r4, r4
 582:Src/main.c    ****       target_D=(vv-vp+vr)*(1.5);
 1217              		.loc 1 582 15 view .LVU349
 1218 00a6 DFF81491 		ldr	r9, .L58+36
 1219              	.LVL64:
 582:Src/main.c    ****       target_D=(vv-vp+vr)*(1.5);
 1220              		.loc 1 582 15 view .LVU350
 1221 00aa A9F80040 		strh	r4, [r9]	@ movhi
 583:Src/main.c    ****       CAN_Set_Motor_Voltage(pid_calc(&motorA,target_A,current_rpm_A),
 1222              		.loc 1 583 7 is_stmt 1 view .LVU351
 583:Src/main.c    ****       CAN_Set_Motor_Voltage(pid_calc(&motorA,target_A,current_rpm_A),
 1223              		.loc 1 583 26 is_stmt 0 view .LVU352
 1224 00ae 08EB0500 		add	r0, r8, r5
 1225 00b2 FFF7FEFF 		bl	__aeabi_i2d
 1226              	.LVL65:
 1227 00b6 0022     		movs	r2, #0
 1228 00b8 414B     		ldr	r3, .L58+40
 1229 00ba FFF7FEFF 		bl	__aeabi_dmul
 1230              	.LVL66:
 583:Src/main.c    ****       CAN_Set_Motor_Voltage(pid_calc(&motorA,target_A,current_rpm_A),
ARM GAS  C:\Users\Administrator.DESKTOP-24M4MSA\AppData\Local\Temp\ccEGYBFN.s 			page 38


 1231              		.loc 1 583 15 view .LVU353
 1232 00be FFF7FEFF 		bl	__aeabi_d2iz
 1233              	.LVL67:
 1234 00c2 00B2     		sxth	r0, r0
 1235 00c4 DFF8FC80 		ldr	r8, .L58+44
 1236 00c8 A8F80000 		strh	r0, [r8]	@ movhi
 584:Src/main.c    ****                           pid_calc(&motorB,target_B,current_rpm_B),
 1237              		.loc 1 584 7 is_stmt 1 view .LVU354
 584:Src/main.c    ****                           pid_calc(&motorB,target_B,current_rpm_B),
 1238              		.loc 1 584 29 is_stmt 0 view .LVU355
 1239 00cc 3D88     		ldrh	r5, [r7]
 1240              	.LVL68:
 584:Src/main.c    ****                           pid_calc(&motorB,target_B,current_rpm_B),
 1241              		.loc 1 584 29 view .LVU356
 1242 00ce 2DB2     		sxth	r5, r5
 1243 00d0 3D4B     		ldr	r3, .L58+48
 1244 00d2 1888     		ldrh	r0, [r3]
 1245 00d4 00B2     		sxth	r0, r0
 1246 00d6 FFF7FEFF 		bl	__aeabi_i2f
 1247              	.LVL69:
 1248 00da 0446     		mov	r4, r0
 1249 00dc 2846     		mov	r0, r5
 1250 00de FFF7FEFF 		bl	__aeabi_i2f
 1251              	.LVL70:
 1252 00e2 0146     		mov	r1, r0
 1253 00e4 2246     		mov	r2, r4
 1254 00e6 3948     		ldr	r0, .L58+52
 1255 00e8 FFF7FEFF 		bl	pid_calc
 1256              	.LVL71:
 1257 00ec 0746     		mov	r7, r0
 585:Src/main.c    ****                           pid_calc(&motorC,target_C,current_rpm_C),
 1258              		.loc 1 585 27 view .LVU357
 1259 00ee 3588     		ldrh	r5, [r6]
 1260 00f0 2DB2     		sxth	r5, r5
 1261 00f2 374B     		ldr	r3, .L58+56
 1262 00f4 1888     		ldrh	r0, [r3]
 1263 00f6 00B2     		sxth	r0, r0
 1264 00f8 FFF7FEFF 		bl	__aeabi_i2f
 1265              	.LVL72:
 1266 00fc 0446     		mov	r4, r0
 1267 00fe 2846     		mov	r0, r5
 1268 0100 FFF7FEFF 		bl	__aeabi_i2f
 1269              	.LVL73:
 1270 0104 0146     		mov	r1, r0
 1271 0106 2246     		mov	r2, r4
 1272 0108 3248     		ldr	r0, .L58+60
 1273 010a FFF7FEFF 		bl	pid_calc
 1274              	.LVL74:
 1275 010e 0446     		mov	r4, r0
 586:Src/main.c    ****                           pid_calc(&motorD,target_D,current_rpm_D),
 1276              		.loc 1 586 27 view .LVU358
 1277 0110 B9F80060 		ldrh	r6, [r9]
 1278 0114 36B2     		sxth	r6, r6
 1279 0116 304B     		ldr	r3, .L58+64
 1280 0118 1888     		ldrh	r0, [r3]
 1281 011a 00B2     		sxth	r0, r0
 1282 011c FFF7FEFF 		bl	__aeabi_i2f
ARM GAS  C:\Users\Administrator.DESKTOP-24M4MSA\AppData\Local\Temp\ccEGYBFN.s 			page 39


 1283              	.LVL75:
 1284 0120 0546     		mov	r5, r0
 1285 0122 3046     		mov	r0, r6
 1286 0124 FFF7FEFF 		bl	__aeabi_i2f
 1287              	.LVL76:
 1288 0128 0146     		mov	r1, r0
 1289 012a 2A46     		mov	r2, r5
 1290 012c 2B48     		ldr	r0, .L58+68
 1291 012e FFF7FEFF 		bl	pid_calc
 1292              	.LVL77:
 1293 0132 0546     		mov	r5, r0
 587:Src/main.c    ****                           msg);
 1294              		.loc 1 587 27 view .LVU359
 1295 0134 B8F80080 		ldrh	r8, [r8]
 1296 0138 0FFA88F8 		sxth	r8, r8
 1297 013c 284B     		ldr	r3, .L58+72
 1298 013e 1888     		ldrh	r0, [r3]
 1299 0140 00B2     		sxth	r0, r0
 1300 0142 FFF7FEFF 		bl	__aeabi_i2f
 1301              	.LVL78:
 1302 0146 0646     		mov	r6, r0
 1303 0148 4046     		mov	r0, r8
 1304 014a FFF7FEFF 		bl	__aeabi_i2f
 1305              	.LVL79:
 1306 014e 0146     		mov	r1, r0
 1307 0150 3246     		mov	r2, r6
 1308 0152 2448     		ldr	r0, .L58+76
 1309 0154 FFF7FEFF 		bl	pid_calc
 1310              	.LVL80:
 584:Src/main.c    ****                           pid_calc(&motorB,target_B,current_rpm_B),
 1311              		.loc 1 584 7 view .LVU360
 1312 0158 FFF7FEFF 		bl	__aeabi_f2iz
 1313              	.LVL81:
 1314 015c 06B2     		sxth	r6, r0
 1315 015e 2846     		mov	r0, r5
 1316 0160 FFF7FEFF 		bl	__aeabi_f2iz
 1317              	.LVL82:
 1318 0164 05B2     		sxth	r5, r0
 1319 0166 2046     		mov	r0, r4
 1320 0168 FFF7FEFF 		bl	__aeabi_f2iz
 1321              	.LVL83:
 1322 016c 04B2     		sxth	r4, r0
 1323 016e 3846     		mov	r0, r7
 1324 0170 FFF7FEFF 		bl	__aeabi_f2iz
 1325              	.LVL84:
 1326 0174 1C4F     		ldr	r7, .L58+80
 1327 0176 0097     		str	r7, [sp]
 1328 0178 3346     		mov	r3, r6
 1329 017a 2A46     		mov	r2, r5
 1330 017c 2146     		mov	r1, r4
 1331 017e 00B2     		sxth	r0, r0
 1332 0180 FFF7FEFF 		bl	CAN_Set_Motor_Voltage
 1333              	.LVL85:
 589:Src/main.c    ****       break;
 1334              		.loc 1 589 7 is_stmt 1 view .LVU361
 589:Src/main.c    ****       break;
 1335              		.loc 1 589 21 is_stmt 0 view .LVU362
ARM GAS  C:\Users\Administrator.DESKTOP-24M4MSA\AppData\Local\Temp\ccEGYBFN.s 			page 40


 1336 0184 194B     		ldr	r3, .L58+84
 1337 0186 3A46     		mov	r2, r7
 1338 0188 1949     		ldr	r1, .L58+88
 1339 018a 1A48     		ldr	r0, .L58+92
 1340 018c FFF7FEFF 		bl	HAL_CAN_AddTxMessage
 1341              	.LVL86:
 589:Src/main.c    ****       break;
 1342              		.loc 1 589 19 view .LVU363
 1343 0190 194B     		ldr	r3, .L58+96
 1344 0192 1870     		strb	r0, [r3]
 590:Src/main.c    ****     }
 1345              		.loc 1 590 7 is_stmt 1 view .LVU364
 1346 0194 3EE7     		b	.L40
 1347              	.L59:
 1348 0196 00BF     		.align	3
 1349              	.L58:
 1350 0198 9A999999 		.word	-1717986918
 1351 019c 9999A93F 		.word	1068079513
 1352 01a0 CDCCCCCC 		.word	-858993459
 1353 01a4 CCCCFC3F 		.word	1073532108
 1354 01a8 33333333 		.word	858993459
 1355 01ac 3333FBBF 		.word	-1074056397
 1356 01b0 00000000 		.word	.LANCHOR22
 1357 01b4 00000000 		.word	.LANCHOR23
 1358 01b8 00000000 		.word	.LANCHOR24
 1359 01bc 00000000 		.word	.LANCHOR25
 1360 01c0 0000F83F 		.word	1073217536
 1361 01c4 00000000 		.word	.LANCHOR26
 1362 01c8 00000000 		.word	.LANCHOR14
 1363 01cc 00000000 		.word	.LANCHOR5
 1364 01d0 00000000 		.word	.LANCHOR15
 1365 01d4 00000000 		.word	.LANCHOR6
 1366 01d8 00000000 		.word	.LANCHOR16
 1367 01dc 00000000 		.word	.LANCHOR7
 1368 01e0 00000000 		.word	.LANCHOR17
 1369 01e4 00000000 		.word	.LANCHOR8
 1370 01e8 00000000 		.word	.LANCHOR27
 1371 01ec 00000000 		.word	.LANCHOR28
 1372 01f0 00000000 		.word	.LANCHOR4
 1373 01f4 00000000 		.word	.LANCHOR2
 1374 01f8 00000000 		.word	.LANCHOR29
 1375              	.L42:
 590:Src/main.c    ****     }
 1376              		.loc 1 590 7 is_stmt 0 view .LVU365
 1377              	.LBE7:
 1378              	.LBB8:
 593:Src/main.c    ****       target_A=vp*(1.8);
 1379              		.loc 1 593 7 is_stmt 1 view .LVU366
 593:Src/main.c    ****       target_A=vp*(1.8);
 1380              		.loc 1 593 29 is_stmt 0 view .LVU367
 1381 01fc 744D     		ldr	r5, .L60+16
 1382 01fe AC88     		ldrh	r4, [r5, #4]
 1383              	.LVL87:
 594:Src/main.c    ****       target_B=vp*(1.7);
 1384              		.loc 1 594 7 is_stmt 1 view .LVU368
 594:Src/main.c    ****       target_B=vp*(1.7);
 1385              		.loc 1 594 18 is_stmt 0 view .LVU369
ARM GAS  C:\Users\Administrator.DESKTOP-24M4MSA\AppData\Local\Temp\ccEGYBFN.s 			page 41


 1386 0200 A4F58060 		sub	r0, r4, #1024
 1387              	.LVL88:
 594:Src/main.c    ****       target_B=vp*(1.7);
 1388              		.loc 1 594 18 view .LVU370
 1389 0204 FFF7FEFF 		bl	__aeabi_i2d
 1390              	.LVL89:
 594:Src/main.c    ****       target_B=vp*(1.7);
 1391              		.loc 1 594 18 view .LVU371
 1392 0208 0646     		mov	r6, r0
 1393 020a 0F46     		mov	r7, r1
 1394 020c 6CA3     		adr	r3, .L60
 1395 020e D3E90023 		ldrd	r2, [r3]
 1396 0212 FFF7FEFF 		bl	__aeabi_dmul
 1397              	.LVL90:
 594:Src/main.c    ****       target_B=vp*(1.7);
 1398              		.loc 1 594 15 view .LVU372
 1399 0216 FFF7FEFF 		bl	__aeabi_d2iz
 1400              	.LVL91:
 1401 021a 00B2     		sxth	r0, r0
 1402 021c DFF8B481 		ldr	r8, .L60+20
 1403 0220 A8F80000 		strh	r0, [r8]	@ movhi
 595:Src/main.c    ****       target_C=vp*(-1);
 1404              		.loc 1 595 7 is_stmt 1 view .LVU373
 595:Src/main.c    ****       target_C=vp*(-1);
 1405              		.loc 1 595 18 is_stmt 0 view .LVU374
 1406 0224 68A3     		adr	r3, .L60+8
 1407 0226 D3E90023 		ldrd	r2, [r3]
 1408 022a 3046     		mov	r0, r6
 1409 022c 3946     		mov	r1, r7
 1410 022e FFF7FEFF 		bl	__aeabi_dmul
 1411              	.LVL92:
 595:Src/main.c    ****       target_C=vp*(-1);
 1412              		.loc 1 595 15 view .LVU375
 1413 0232 FFF7FEFF 		bl	__aeabi_d2iz
 1414              	.LVL93:
 1415 0236 00B2     		sxth	r0, r0
 1416 0238 DFF89C91 		ldr	r9, .L60+24
 1417 023c A9F80000 		strh	r0, [r9]	@ movhi
 596:Src/main.c    ****       target_D=vp*(-1.5);
 1418              		.loc 1 596 7 is_stmt 1 view .LVU376
 596:Src/main.c    ****       target_D=vp*(-1.5);
 1419              		.loc 1 596 15 is_stmt 0 view .LVU377
 1420 0240 C4F58064 		rsb	r4, r4, #1024
 1421              	.LVL94:
 596:Src/main.c    ****       target_D=vp*(-1.5);
 1422              		.loc 1 596 15 view .LVU378
 1423 0244 24B2     		sxth	r4, r4
 1424 0246 DFF894A1 		ldr	r10, .L60+28
 1425 024a AAF80040 		strh	r4, [r10]	@ movhi
 597:Src/main.c    ****       CAN_Set_Motor_Voltage(pid_calc(&motorA,target_A,current_rpm_A),
 1426              		.loc 1 597 7 is_stmt 1 view .LVU379
 597:Src/main.c    ****       CAN_Set_Motor_Voltage(pid_calc(&motorA,target_A,current_rpm_A),
 1427              		.loc 1 597 18 is_stmt 0 view .LVU380
 1428 024e 0022     		movs	r2, #0
 1429 0250 634B     		ldr	r3, .L60+32
 1430 0252 3046     		mov	r0, r6
 1431 0254 3946     		mov	r1, r7
ARM GAS  C:\Users\Administrator.DESKTOP-24M4MSA\AppData\Local\Temp\ccEGYBFN.s 			page 42


 1432 0256 FFF7FEFF 		bl	__aeabi_dmul
 1433              	.LVL95:
 597:Src/main.c    ****       CAN_Set_Motor_Voltage(pid_calc(&motorA,target_A,current_rpm_A),
 1434              		.loc 1 597 15 view .LVU381
 1435 025a FFF7FEFF 		bl	__aeabi_d2iz
 1436              	.LVL96:
 1437 025e 00B2     		sxth	r0, r0
 1438 0260 604F     		ldr	r7, .L60+36
 1439 0262 3880     		strh	r0, [r7]	@ movhi
 598:Src/main.c    ****                           pid_calc(&motorB,target_B,current_rpm_B),
 1440              		.loc 1 598 7 is_stmt 1 view .LVU382
 598:Src/main.c    ****                           pid_calc(&motorB,target_B,current_rpm_B),
 1441              		.loc 1 598 29 is_stmt 0 view .LVU383
 1442 0264 B8F80060 		ldrh	r6, [r8]
 1443 0268 36B2     		sxth	r6, r6
 1444 026a 5F4B     		ldr	r3, .L60+40
 1445 026c 1888     		ldrh	r0, [r3]
 1446 026e 00B2     		sxth	r0, r0
 1447 0270 FFF7FEFF 		bl	__aeabi_i2f
 1448              	.LVL97:
 1449 0274 0446     		mov	r4, r0
 1450 0276 3046     		mov	r0, r6
 1451 0278 FFF7FEFF 		bl	__aeabi_i2f
 1452              	.LVL98:
 1453 027c 0146     		mov	r1, r0
 1454 027e 2246     		mov	r2, r4
 1455 0280 5A48     		ldr	r0, .L60+44
 1456 0282 FFF7FEFF 		bl	pid_calc
 1457              	.LVL99:
 1458 0286 8046     		mov	r8, r0
 599:Src/main.c    ****                           pid_calc(&motorC,target_C,current_rpm_C),
 1459              		.loc 1 599 27 view .LVU384
 1460 0288 B9F80060 		ldrh	r6, [r9]
 1461 028c 36B2     		sxth	r6, r6
 1462 028e 584B     		ldr	r3, .L60+48
 1463 0290 1888     		ldrh	r0, [r3]
 1464 0292 00B2     		sxth	r0, r0
 1465 0294 FFF7FEFF 		bl	__aeabi_i2f
 1466              	.LVL100:
 1467 0298 0446     		mov	r4, r0
 1468 029a 3046     		mov	r0, r6
 1469 029c FFF7FEFF 		bl	__aeabi_i2f
 1470              	.LVL101:
 1471 02a0 0146     		mov	r1, r0
 1472 02a2 2246     		mov	r2, r4
 1473 02a4 5348     		ldr	r0, .L60+52
 1474 02a6 FFF7FEFF 		bl	pid_calc
 1475              	.LVL102:
 1476 02aa 0446     		mov	r4, r0
 600:Src/main.c    ****                           pid_calc(&motorD,target_D,current_rpm_D),
 1477              		.loc 1 600 27 view .LVU385
 1478 02ac BAF80090 		ldrh	r9, [r10]
 1479 02b0 0FFA89F9 		sxth	r9, r9
 1480 02b4 504B     		ldr	r3, .L60+56
 1481 02b6 1888     		ldrh	r0, [r3]
 1482 02b8 00B2     		sxth	r0, r0
 1483 02ba FFF7FEFF 		bl	__aeabi_i2f
ARM GAS  C:\Users\Administrator.DESKTOP-24M4MSA\AppData\Local\Temp\ccEGYBFN.s 			page 43


 1484              	.LVL103:
 1485 02be 0646     		mov	r6, r0
 1486 02c0 4846     		mov	r0, r9
 1487 02c2 FFF7FEFF 		bl	__aeabi_i2f
 1488              	.LVL104:
 1489 02c6 0146     		mov	r1, r0
 1490 02c8 3246     		mov	r2, r6
 1491 02ca 4C48     		ldr	r0, .L60+60
 1492 02cc FFF7FEFF 		bl	pid_calc
 1493              	.LVL105:
 1494 02d0 0646     		mov	r6, r0
 601:Src/main.c    ****                           msg);
 1495              		.loc 1 601 27 view .LVU386
 1496 02d2 B7F80090 		ldrh	r9, [r7]
 1497 02d6 0FFA89F9 		sxth	r9, r9
 1498 02da 494B     		ldr	r3, .L60+64
 1499 02dc 1888     		ldrh	r0, [r3]
 1500 02de 00B2     		sxth	r0, r0
 1501 02e0 FFF7FEFF 		bl	__aeabi_i2f
 1502              	.LVL106:
 1503 02e4 0746     		mov	r7, r0
 1504 02e6 4846     		mov	r0, r9
 1505 02e8 FFF7FEFF 		bl	__aeabi_i2f
 1506              	.LVL107:
 1507 02ec 0146     		mov	r1, r0
 1508 02ee 3A46     		mov	r2, r7
 1509 02f0 4448     		ldr	r0, .L60+68
 1510 02f2 FFF7FEFF 		bl	pid_calc
 1511              	.LVL108:
 598:Src/main.c    ****                           pid_calc(&motorB,target_B,current_rpm_B),
 1512              		.loc 1 598 7 view .LVU387
 1513 02f6 FFF7FEFF 		bl	__aeabi_f2iz
 1514              	.LVL109:
 1515 02fa 07B2     		sxth	r7, r0
 1516 02fc 3046     		mov	r0, r6
 1517 02fe FFF7FEFF 		bl	__aeabi_f2iz
 1518              	.LVL110:
 1519 0302 06B2     		sxth	r6, r0
 1520 0304 2046     		mov	r0, r4
 1521 0306 FFF7FEFF 		bl	__aeabi_f2iz
 1522              	.LVL111:
 1523 030a 04B2     		sxth	r4, r0
 1524 030c 4046     		mov	r0, r8
 1525 030e FFF7FEFF 		bl	__aeabi_f2iz
 1526              	.LVL112:
 1527 0312 DFF8F480 		ldr	r8, .L60+72
 1528 0316 CDF80080 		str	r8, [sp]
 1529 031a 3B46     		mov	r3, r7
 1530 031c 3246     		mov	r2, r6
 1531 031e 2146     		mov	r1, r4
 1532 0320 00B2     		sxth	r0, r0
 1533 0322 FFF7FEFF 		bl	CAN_Set_Motor_Voltage
 1534              	.LVL113:
 603:Src/main.c    ****       vf=(RC_CtrlData.rc.ch3>1024)?1:((RC_CtrlData.rc.ch3<1024)?-1:0);
 1535              		.loc 1 603 7 is_stmt 1 view .LVU388
 603:Src/main.c    ****       vf=(RC_CtrlData.rc.ch3>1024)?1:((RC_CtrlData.rc.ch3<1024)?-1:0);
 1536              		.loc 1 603 21 is_stmt 0 view .LVU389
ARM GAS  C:\Users\Administrator.DESKTOP-24M4MSA\AppData\Local\Temp\ccEGYBFN.s 			page 44


 1537 0326 394B     		ldr	r3, .L60+76
 1538 0328 4246     		mov	r2, r8
 1539 032a 3949     		ldr	r1, .L60+80
 1540 032c 3948     		ldr	r0, .L60+84
 1541 032e FFF7FEFF 		bl	HAL_CAN_AddTxMessage
 1542              	.LVL114:
 603:Src/main.c    ****       vf=(RC_CtrlData.rc.ch3>1024)?1:((RC_CtrlData.rc.ch3<1024)?-1:0);
 1543              		.loc 1 603 19 view .LVU390
 1544 0332 394B     		ldr	r3, .L60+88
 1545 0334 1870     		strb	r0, [r3]
 604:Src/main.c    ****       vr=(RC_CtrlData.rc.ch2>1024)?148:((RC_CtrlData.rc.ch2<1024)?152:150);
 1546              		.loc 1 604 7 is_stmt 1 view .LVU391
 604:Src/main.c    ****       vr=(RC_CtrlData.rc.ch2>1024)?148:((RC_CtrlData.rc.ch2<1024)?152:150);
 1547              		.loc 1 604 25 is_stmt 0 view .LVU392
 1548 0336 EB88     		ldrh	r3, [r5, #6]
 604:Src/main.c    ****       vr=(RC_CtrlData.rc.ch2>1024)?148:((RC_CtrlData.rc.ch2<1024)?152:150);
 1549              		.loc 1 604 37 view .LVU393
 1550 0338 B3F5806F 		cmp	r3, #1024
 1551 033c 03D8     		bhi	.L50
 604:Src/main.c    ****       vr=(RC_CtrlData.rc.ch2>1024)?148:((RC_CtrlData.rc.ch2<1024)?152:150);
 1552              		.loc 1 604 67 discriminator 1 view .LVU394
 1553 033e 0DD2     		bcs	.L51
 604:Src/main.c    ****       vr=(RC_CtrlData.rc.ch2>1024)?148:((RC_CtrlData.rc.ch2<1024)?152:150);
 1554              		.loc 1 604 67 view .LVU395
 1555 0340 4FF0FF32 		mov	r2, #-1
 1556 0344 00E0     		b	.L44
 1557              	.L50:
 604:Src/main.c    ****       vr=(RC_CtrlData.rc.ch2>1024)?148:((RC_CtrlData.rc.ch2<1024)?152:150);
 1558              		.loc 1 604 37 view .LVU396
 1559 0346 0122     		movs	r2, #1
 1560              	.L44:
 604:Src/main.c    ****       vr=(RC_CtrlData.rc.ch2>1024)?148:((RC_CtrlData.rc.ch2<1024)?152:150);
 1561              		.loc 1 604 9 discriminator 8 view .LVU397
 1562 0348 344B     		ldr	r3, .L60+92
 1563 034a 1A60     		str	r2, [r3]
 605:Src/main.c    ****       vz=(RC_CtrlData.rc.ch1>1024)?1:((RC_CtrlData.rc.ch1<1024)?-1:0);
 1564              		.loc 1 605 7 is_stmt 1 discriminator 8 view .LVU398
 605:Src/main.c    ****       vz=(RC_CtrlData.rc.ch1>1024)?1:((RC_CtrlData.rc.ch1<1024)?-1:0);
 1565              		.loc 1 605 25 is_stmt 0 discriminator 8 view .LVU399
 1566 034c 204B     		ldr	r3, .L60+16
 1567 034e 9B88     		ldrh	r3, [r3, #4]
 605:Src/main.c    ****       vz=(RC_CtrlData.rc.ch1>1024)?1:((RC_CtrlData.rc.ch1<1024)?-1:0);
 1568              		.loc 1 605 39 discriminator 8 view .LVU400
 1569 0350 B3F5806F 		cmp	r3, #1024
 1570 0354 04D8     		bhi	.L52
 605:Src/main.c    ****       vz=(RC_CtrlData.rc.ch1>1024)?1:((RC_CtrlData.rc.ch1<1024)?-1:0);
 1571              		.loc 1 605 70 discriminator 1 view .LVU401
 1572 0356 0FD2     		bcs	.L53
 605:Src/main.c    ****       vz=(RC_CtrlData.rc.ch1>1024)?1:((RC_CtrlData.rc.ch1<1024)?-1:0);
 1573              		.loc 1 605 70 view .LVU402
 1574 0358 9822     		movs	r2, #152
 1575 035a 02E0     		b	.L45
 1576              	.L51:
 604:Src/main.c    ****       vr=(RC_CtrlData.rc.ch2>1024)?148:((RC_CtrlData.rc.ch2<1024)?152:150);
 1577              		.loc 1 604 67 view .LVU403
 1578 035c 0022     		movs	r2, #0
 1579 035e F3E7     		b	.L44
ARM GAS  C:\Users\Administrator.DESKTOP-24M4MSA\AppData\Local\Temp\ccEGYBFN.s 			page 45


 1580              	.L52:
 605:Src/main.c    ****       vz=(RC_CtrlData.rc.ch1>1024)?1:((RC_CtrlData.rc.ch1<1024)?-1:0);
 1581              		.loc 1 605 39 view .LVU404
 1582 0360 9422     		movs	r2, #148
 1583              	.L45:
 605:Src/main.c    ****       vz=(RC_CtrlData.rc.ch1>1024)?1:((RC_CtrlData.rc.ch1<1024)?-1:0);
 1584              		.loc 1 605 9 discriminator 8 view .LVU405
 1585 0362 2F4B     		ldr	r3, .L60+96
 1586 0364 1A60     		str	r2, [r3]
 606:Src/main.c    ****       vg=(RC_CtrlData.rc.s1>1)?vg++:((RC_CtrlData.rc.s1=1)?vg--:0);
 1587              		.loc 1 606 7 is_stmt 1 discriminator 8 view .LVU406
 606:Src/main.c    ****       vg=(RC_CtrlData.rc.s1>1)?vg++:((RC_CtrlData.rc.s1=1)?vg--:0);
 1588              		.loc 1 606 25 is_stmt 0 discriminator 8 view .LVU407
 1589 0366 1A4B     		ldr	r3, .L60+16
 1590 0368 5B88     		ldrh	r3, [r3, #2]
 606:Src/main.c    ****       vg=(RC_CtrlData.rc.s1>1)?vg++:((RC_CtrlData.rc.s1=1)?vg--:0);
 1591              		.loc 1 606 37 discriminator 8 view .LVU408
 1592 036a B3F5806F 		cmp	r3, #1024
 1593 036e 05D8     		bhi	.L54
 606:Src/main.c    ****       vg=(RC_CtrlData.rc.s1>1)?vg++:((RC_CtrlData.rc.s1=1)?vg--:0);
 1594              		.loc 1 606 67 discriminator 1 view .LVU409
 1595 0370 19D2     		bcs	.L55
 606:Src/main.c    ****       vg=(RC_CtrlData.rc.s1>1)?vg++:((RC_CtrlData.rc.s1=1)?vg--:0);
 1596              		.loc 1 606 67 view .LVU410
 1597 0372 4FF0FF32 		mov	r2, #-1
 1598 0376 02E0     		b	.L46
 1599              	.L53:
 605:Src/main.c    ****       vz=(RC_CtrlData.rc.ch1>1024)?1:((RC_CtrlData.rc.ch1<1024)?-1:0);
 1600              		.loc 1 605 70 view .LVU411
 1601 0378 9622     		movs	r2, #150
 1602 037a F2E7     		b	.L45
 1603              	.L54:
 606:Src/main.c    ****       vg=(RC_CtrlData.rc.s1>1)?vg++:((RC_CtrlData.rc.s1=1)?vg--:0);
 1604              		.loc 1 606 37 view .LVU412
 1605 037c 0122     		movs	r2, #1
 1606              	.L46:
 606:Src/main.c    ****       vg=(RC_CtrlData.rc.s1>1)?vg++:((RC_CtrlData.rc.s1=1)?vg--:0);
 1607              		.loc 1 606 9 discriminator 8 view .LVU413
 1608 037e 294B     		ldr	r3, .L60+100
 1609 0380 1A60     		str	r2, [r3]
 607:Src/main.c    ****       LIMIT_MIN_MAX(vg,50,250);
 1610              		.loc 1 607 7 is_stmt 1 discriminator 8 view .LVU414
 607:Src/main.c    ****       LIMIT_MIN_MAX(vg,50,250);
 1611              		.loc 1 607 25 is_stmt 0 discriminator 8 view .LVU415
 1612 0382 134B     		ldr	r3, .L60+16
 1613 0384 1B7A     		ldrb	r3, [r3, #8]	@ zero_extendqisi2
 607:Src/main.c    ****       LIMIT_MIN_MAX(vg,50,250);
 1614              		.loc 1 607 36 discriminator 8 view .LVU416
 1615 0386 012B     		cmp	r3, #1
 1616 0388 0FD9     		bls	.L47
 607:Src/main.c    ****       LIMIT_MIN_MAX(vg,50,250);
 1617              		.loc 1 607 34 discriminator 1 view .LVU417
 1618 038a 274A     		ldr	r2, .L60+104
 1619 038c 1368     		ldr	r3, [r2]
 1620 038e 591C     		adds	r1, r3, #1
 1621 0390 1160     		str	r1, [r2]
 1622              	.L48:
ARM GAS  C:\Users\Administrator.DESKTOP-24M4MSA\AppData\Local\Temp\ccEGYBFN.s 			page 46


 607:Src/main.c    ****       LIMIT_MIN_MAX(vg,50,250);
 1623              		.loc 1 607 9 discriminator 8 view .LVU418
 1624 0392 254A     		ldr	r2, .L60+104
 1625 0394 1360     		str	r3, [r2]
 608:Src/main.c    ****       break;
 1626              		.loc 1 608 7 is_stmt 1 discriminator 8 view .LVU419
 1627 0396 322B     		cmp	r3, #50
 1628 0398 0FDD     		ble	.L56
 608:Src/main.c    ****       break;
 1629              		.loc 1 608 7 is_stmt 0 discriminator 1 view .LVU420
 1630 039a FA2B     		cmp	r3, #250
 1631 039c A8BF     		it	ge
 1632 039e FA23     		movge	r3, #250
 1633              	.L49:
 608:Src/main.c    ****       break;
 1634              		.loc 1 608 7 discriminator 4 view .LVU421
 1635 03a0 214A     		ldr	r2, .L60+104
 1636 03a2 1360     		str	r3, [r2]
 609:Src/main.c    ****     }
 1637              		.loc 1 609 7 is_stmt 1 discriminator 4 view .LVU422
 1638              	.LBE8:
 1639              		.loc 1 612 1 is_stmt 0 discriminator 4 view .LVU423
 1640 03a4 36E6     		b	.L40
 1641              	.L55:
 1642              	.LBB9:
 606:Src/main.c    ****       vg=(RC_CtrlData.rc.s1>1)?vg++:((RC_CtrlData.rc.s1=1)?vg--:0);
 1643              		.loc 1 606 67 view .LVU424
 1644 03a6 0022     		movs	r2, #0
 1645 03a8 E9E7     		b	.L46
 1646              	.L47:
 607:Src/main.c    ****       LIMIT_MIN_MAX(vg,50,250);
 1647              		.loc 1 607 56 discriminator 2 view .LVU425
 1648 03aa 094B     		ldr	r3, .L60+16
 1649 03ac 0122     		movs	r2, #1
 1650 03ae 1A72     		strb	r2, [r3, #8]
 607:Src/main.c    ****       LIMIT_MIN_MAX(vg,50,250);
 1651              		.loc 1 607 62 discriminator 2 view .LVU426
 1652 03b0 1D4A     		ldr	r2, .L60+104
 1653 03b2 1368     		ldr	r3, [r2]
 1654 03b4 591E     		subs	r1, r3, #1
 1655 03b6 1160     		str	r1, [r2]
 1656 03b8 EBE7     		b	.L48
 1657              	.L56:
 608:Src/main.c    ****       break;
 1658              		.loc 1 608 7 view .LVU427
 1659 03ba 3223     		movs	r3, #50
 1660 03bc F0E7     		b	.L49
 1661              	.L61:
 1662 03be 00BF     		.align	3
 1663              	.L60:
 1664 03c0 CDCCCCCC 		.word	-858993459
 1665 03c4 CCCCFC3F 		.word	1073532108
 1666 03c8 33333333 		.word	858993459
 1667 03cc 3333FB3F 		.word	1073427251
 1668 03d0 00000000 		.word	.LANCHOR22
 1669 03d4 00000000 		.word	.LANCHOR23
 1670 03d8 00000000 		.word	.LANCHOR24
ARM GAS  C:\Users\Administrator.DESKTOP-24M4MSA\AppData\Local\Temp\ccEGYBFN.s 			page 47


 1671 03dc 00000000 		.word	.LANCHOR25
 1672 03e0 0000F8BF 		.word	-1074266112
 1673 03e4 00000000 		.word	.LANCHOR26
 1674 03e8 00000000 		.word	.LANCHOR14
 1675 03ec 00000000 		.word	.LANCHOR5
 1676 03f0 00000000 		.word	.LANCHOR15
 1677 03f4 00000000 		.word	.LANCHOR6
 1678 03f8 00000000 		.word	.LANCHOR16
 1679 03fc 00000000 		.word	.LANCHOR7
 1680 0400 00000000 		.word	.LANCHOR17
 1681 0404 00000000 		.word	.LANCHOR8
 1682 0408 00000000 		.word	.LANCHOR27
 1683 040c 00000000 		.word	.LANCHOR28
 1684 0410 00000000 		.word	.LANCHOR4
 1685 0414 00000000 		.word	.LANCHOR2
 1686 0418 00000000 		.word	.LANCHOR29
 1687 041c 00000000 		.word	.LANCHOR20
 1688 0420 00000000 		.word	.LANCHOR19
 1689 0424 00000000 		.word	.LANCHOR18
 1690 0428 00000000 		.word	.LANCHOR21
 1691              	.LBE9:
 1692              		.cfi_endproc
 1693              	.LFE75:
 1695              		.section	.text.HAL_UART_RxCpltCallback,"ax",%progbits
 1696              		.align	1
 1697              		.global	HAL_UART_RxCpltCallback
 1698              		.syntax unified
 1699              		.thumb
 1700              		.thumb_func
 1701              		.fpu softvfp
 1703              	HAL_UART_RxCpltCallback:
 1704              	.LVL115:
 1705              	.LFB73:
 457:Src/main.c    **** 			if(dbus_rx_buffer == NULL)
 1706              		.loc 1 457 1 is_stmt 1 view -0
 1707              		.cfi_startproc
 1708              		@ args = 0, pretend = 0, frame = 0
 1709              		@ frame_needed = 0, uses_anonymous_args = 0
 457:Src/main.c    **** 			if(dbus_rx_buffer == NULL)
 1710              		.loc 1 457 1 is_stmt 0 view .LVU429
 1711 0000 08B5     		push	{r3, lr}
 1712              	.LCFI23:
 1713              		.cfi_def_cfa_offset 8
 1714              		.cfi_offset 3, -8
 1715              		.cfi_offset 14, -4
 458:Src/main.c    **** 			{
 1716              		.loc 1 458 4 is_stmt 1 view .LVU430
 462:Src/main.c    **** 			RC_CtrlData.rc.ch1 = (((int16_t)dbus_rx_buffer[1] >> 3) | ((int16_t)dbus_rx_buffer[2] << 5))& 0x
 1717              		.loc 1 462 4 view .LVU431
 462:Src/main.c    **** 			RC_CtrlData.rc.ch1 = (((int16_t)dbus_rx_buffer[1] >> 3) | ((int16_t)dbus_rx_buffer[2] << 5))& 0x
 1718              		.loc 1 462 49 is_stmt 0 view .LVU432
 1719 0002 1448     		ldr	r0, .L64
 1720              	.LVL116:
 462:Src/main.c    **** 			RC_CtrlData.rc.ch1 = (((int16_t)dbus_rx_buffer[1] >> 3) | ((int16_t)dbus_rx_buffer[2] << 5))& 0x
 1721              		.loc 1 462 49 view .LVU433
 1722 0004 0378     		ldrb	r3, [r0]	@ zero_extendqisi2
 462:Src/main.c    **** 			RC_CtrlData.rc.ch1 = (((int16_t)dbus_rx_buffer[1] >> 3) | ((int16_t)dbus_rx_buffer[2] << 5))& 0x
ARM GAS  C:\Users\Administrator.DESKTOP-24M4MSA\AppData\Local\Temp\ccEGYBFN.s 			page 48


 1723              		.loc 1 462 79 view .LVU434
 1724 0006 4278     		ldrb	r2, [r0, #1]	@ zero_extendqisi2
 462:Src/main.c    **** 			RC_CtrlData.rc.ch1 = (((int16_t)dbus_rx_buffer[1] >> 3) | ((int16_t)dbus_rx_buffer[2] << 5))& 0x
 1725              		.loc 1 462 53 view .LVU435
 1726 0008 43EA0223 		orr	r3, r3, r2, lsl #8
 462:Src/main.c    **** 			RC_CtrlData.rc.ch1 = (((int16_t)dbus_rx_buffer[1] >> 3) | ((int16_t)dbus_rx_buffer[2] << 5))& 0x
 1727              		.loc 1 462 90 view .LVU436
 1728 000c C3F30A03 		ubfx	r3, r3, #0, #11
 462:Src/main.c    **** 			RC_CtrlData.rc.ch1 = (((int16_t)dbus_rx_buffer[1] >> 3) | ((int16_t)dbus_rx_buffer[2] << 5))& 0x
 1729              		.loc 1 462 23 view .LVU437
 1730 0010 1149     		ldr	r1, .L64+4
 1731 0012 0B80     		strh	r3, [r1]	@ movhi
 463:Src/main.c    **** 			RC_CtrlData.rc.ch2 = (((int16_t)dbus_rx_buffer[2] >> 6) | ((int16_t)dbus_rx_buffer[3] << 2) |((i
 1732              		.loc 1 463 4 is_stmt 1 view .LVU438
 463:Src/main.c    **** 			RC_CtrlData.rc.ch2 = (((int16_t)dbus_rx_buffer[2] >> 6) | ((int16_t)dbus_rx_buffer[3] << 2) |((i
 1733              		.loc 1 463 86 is_stmt 0 view .LVU439
 1734 0014 8378     		ldrb	r3, [r0, #2]	@ zero_extendqisi2
 463:Src/main.c    **** 			RC_CtrlData.rc.ch2 = (((int16_t)dbus_rx_buffer[2] >> 6) | ((int16_t)dbus_rx_buffer[3] << 2) |((i
 1735              		.loc 1 463 60 view .LVU440
 1736 0016 D208     		lsrs	r2, r2, #3
 1737 0018 42EA4312 		orr	r2, r2, r3, lsl #5
 463:Src/main.c    **** 			RC_CtrlData.rc.ch2 = (((int16_t)dbus_rx_buffer[2] >> 6) | ((int16_t)dbus_rx_buffer[3] << 2) |((i
 1738              		.loc 1 463 96 view .LVU441
 1739 001c C2F30A02 		ubfx	r2, r2, #0, #11
 463:Src/main.c    **** 			RC_CtrlData.rc.ch2 = (((int16_t)dbus_rx_buffer[2] >> 6) | ((int16_t)dbus_rx_buffer[3] << 2) |((i
 1740              		.loc 1 463 23 view .LVU442
 1741 0020 4A80     		strh	r2, [r1, #2]	@ movhi
 464:Src/main.c    **** 			RC_CtrlData.rc.ch3 = (((int16_t)dbus_rx_buffer[4] >> 1) | ((int16_t)dbus_rx_buffer[5]<<7)) &0x07
 1742              		.loc 1 464 4 is_stmt 1 view .LVU443
 464:Src/main.c    **** 			RC_CtrlData.rc.ch3 = (((int16_t)dbus_rx_buffer[4] >> 1) | ((int16_t)dbus_rx_buffer[5]<<7)) &0x07
 1743              		.loc 1 464 86 is_stmt 0 view .LVU444
 1744 0022 C278     		ldrb	r2, [r0, #3]	@ zero_extendqisi2
 464:Src/main.c    **** 			RC_CtrlData.rc.ch3 = (((int16_t)dbus_rx_buffer[4] >> 1) | ((int16_t)dbus_rx_buffer[5]<<7)) &0x07
 1745              		.loc 1 464 60 view .LVU445
 1746 0024 9B09     		lsrs	r3, r3, #6
 1747 0026 43EA8203 		orr	r3, r3, r2, lsl #2
 464:Src/main.c    **** 			RC_CtrlData.rc.ch3 = (((int16_t)dbus_rx_buffer[4] >> 1) | ((int16_t)dbus_rx_buffer[5]<<7)) &0x07
 1748              		.loc 1 464 121 view .LVU446
 1749 002a 0279     		ldrb	r2, [r0, #4]	@ zero_extendqisi2
 464:Src/main.c    **** 			RC_CtrlData.rc.ch3 = (((int16_t)dbus_rx_buffer[4] >> 1) | ((int16_t)dbus_rx_buffer[5]<<7)) &0x07
 1750              		.loc 1 464 96 view .LVU447
 1751 002c 43EA8223 		orr	r3, r3, r2, lsl #10
 464:Src/main.c    **** 			RC_CtrlData.rc.ch3 = (((int16_t)dbus_rx_buffer[4] >> 1) | ((int16_t)dbus_rx_buffer[5]<<7)) &0x07
 1752              		.loc 1 464 133 view .LVU448
 1753 0030 C3F30A03 		ubfx	r3, r3, #0, #11
 464:Src/main.c    **** 			RC_CtrlData.rc.ch3 = (((int16_t)dbus_rx_buffer[4] >> 1) | ((int16_t)dbus_rx_buffer[5]<<7)) &0x07
 1754              		.loc 1 464 23 view .LVU449
 1755 0034 8B80     		strh	r3, [r1, #4]	@ movhi
 465:Src/main.c    ****  		  RC_CtrlData.rc.s1 = ((dbus_rx_buffer[5] >> 4) & 0x000C) >> 2;
 1756              		.loc 1 465 4 is_stmt 1 view .LVU450
 465:Src/main.c    ****  		  RC_CtrlData.rc.s1 = ((dbus_rx_buffer[5] >> 4) & 0x000C) >> 2;
 1757              		.loc 1 465 86 is_stmt 0 view .LVU451
 1758 0036 4379     		ldrb	r3, [r0, #5]	@ zero_extendqisi2
 465:Src/main.c    ****  		  RC_CtrlData.rc.s1 = ((dbus_rx_buffer[5] >> 4) & 0x000C) >> 2;
 1759              		.loc 1 465 60 view .LVU452
 1760 0038 5208     		lsrs	r2, r2, #1
 1761 003a 42EAC312 		orr	r2, r2, r3, lsl #7
ARM GAS  C:\Users\Administrator.DESKTOP-24M4MSA\AppData\Local\Temp\ccEGYBFN.s 			page 49


 465:Src/main.c    ****  		  RC_CtrlData.rc.s1 = ((dbus_rx_buffer[5] >> 4) & 0x000C) >> 2;
 1762              		.loc 1 465 95 view .LVU453
 1763 003e C2F30A02 		ubfx	r2, r2, #0, #11
 465:Src/main.c    ****  		  RC_CtrlData.rc.s1 = ((dbus_rx_buffer[5] >> 4) & 0x000C) >> 2;
 1764              		.loc 1 465 23 view .LVU454
 1765 0042 CA80     		strh	r2, [r1, #6]	@ movhi
 466:Src/main.c    ****    		RC_CtrlData.rc.s2 = ((dbus_rx_buffer[5] >> 4) & 0x0003);
 1766              		.loc 1 466 6 is_stmt 1 view .LVU455
 466:Src/main.c    ****    		RC_CtrlData.rc.s2 = ((dbus_rx_buffer[5] >> 4) & 0x0003);
 1767              		.loc 1 466 62 is_stmt 0 view .LVU456
 1768 0044 9A09     		lsrs	r2, r3, #6
 466:Src/main.c    ****    		RC_CtrlData.rc.s2 = ((dbus_rx_buffer[5] >> 4) & 0x0003);
 1769              		.loc 1 466 24 view .LVU457
 1770 0046 0A72     		strb	r2, [r1, #8]
 467:Src/main.c    **** 			// RC_CtrlData.mouse.x = ((int16_t)dbus_rx_buffer[6]) | ((int16_t)dbus_rx_buffer[7] << 8);
 1771              		.loc 1 467 6 is_stmt 1 view .LVU458
 467:Src/main.c    **** 			// RC_CtrlData.mouse.x = ((int16_t)dbus_rx_buffer[6]) | ((int16_t)dbus_rx_buffer[7] << 8);
 1772              		.loc 1 467 52 is_stmt 0 view .LVU459
 1773 0048 C3F30113 		ubfx	r3, r3, #4, #2
 467:Src/main.c    **** 			// RC_CtrlData.mouse.x = ((int16_t)dbus_rx_buffer[6]) | ((int16_t)dbus_rx_buffer[7] << 8);
 1774              		.loc 1 467 24 view .LVU460
 1775 004c 4B72     		strb	r3, [r1, #9]
 476:Src/main.c    **** }
 1776              		.loc 1 476 7 is_stmt 1 view .LVU461
 1777 004e FFF7FEFF 		bl	Integrate_Contorl
 1778              	.LVL117:
 477:Src/main.c    **** // void HAL_CAN_RxFIFO1MsgPendingCallback(CAN_HandleTypeDef *hcan){
 1779              		.loc 1 477 1 is_stmt 0 view .LVU462
 1780 0052 08BD     		pop	{r3, pc}
 1781              	.L65:
 1782              		.align	2
 1783              	.L64:
 1784 0054 00000000 		.word	.LANCHOR10
 1785 0058 00000000 		.word	.LANCHOR22
 1786              		.cfi_endproc
 1787              	.LFE73:
 1789              		.section	.text.Error_Handler,"ax",%progbits
 1790              		.align	1
 1791              		.global	Error_Handler
 1792              		.syntax unified
 1793              		.thumb
 1794              		.thumb_func
 1795              		.fpu softvfp
 1797              	Error_Handler:
 1798              	.LFB76:
 613:Src/main.c    **** /* USER CODE END 4 */
 614:Src/main.c    **** 
 615:Src/main.c    **** /**
 616:Src/main.c    ****   * @brief  This function is executed in case of error occurrence.
 617:Src/main.c    ****   * @retval None
 618:Src/main.c    ****   */
 619:Src/main.c    **** void Error_Handler(void)
 620:Src/main.c    **** {
 1799              		.loc 1 620 1 is_stmt 1 view -0
 1800              		.cfi_startproc
 1801              		@ args = 0, pretend = 0, frame = 0
 1802              		@ frame_needed = 0, uses_anonymous_args = 0
ARM GAS  C:\Users\Administrator.DESKTOP-24M4MSA\AppData\Local\Temp\ccEGYBFN.s 			page 50


 1803              		@ link register save eliminated.
 621:Src/main.c    ****   /* USER CODE BEGIN Error_Handler_Debug */
 622:Src/main.c    ****   /* User can add his own implementation to report the HAL error return state */
 623:Src/main.c    ****   /* USER CODE END Error_Handler_Debug */
 624:Src/main.c    **** }
 1804              		.loc 1 624 1 view .LVU464
 1805 0000 7047     		bx	lr
 1806              		.cfi_endproc
 1807              	.LFE76:
 1809              		.global	arm
 1810              		.global	motorD
 1811              		.global	motorC
 1812              		.global	motorB
 1813              		.global	motorA
 1814              		.global	vg
 1815              		.global	vz
 1816              		.global	vr
 1817              		.global	vf
 1818              		.global	target
 1819              		.global	canMailbox
 1820              		.global	RC_CtrlData
 1821              		.global	dbus_rx_buffer
 1822              		.global	msg
 1823              		.global	hdma_usart1_rx
 1824              		.global	huart2
 1825              		.global	huart1
 1826              		.global	htim2
 1827              		.global	hcan
 1828              		.section	.bss.RC_CtrlData,"aw",%nobits
 1829              		.align	2
 1830              		.set	.LANCHOR22,. + 0
 1833              	RC_CtrlData:
 1834 0000 00000000 		.space	20
 1834      00000000 
 1834      00000000 
 1834      00000000 
 1834      00000000 
 1835              		.section	.bss.arm,"aw",%nobits
 1836              		.align	2
 1837              		.set	.LANCHOR9,. + 0
 1840              	arm:
 1841 0000 00000000 		.space	8
 1841      00000000 
 1842              		.section	.bss.canMailbox,"aw",%nobits
 1843              		.align	2
 1844              		.set	.LANCHOR28,. + 0
 1847              	canMailbox:
 1848 0000 00000000 		.space	4
 1849              		.section	.bss.canRX,"aw",%nobits
 1850              		.align	2
 1851              		.set	.LANCHOR11,. + 0
 1854              	canRX:
 1855 0000 00000000 		.space	8
 1855      00000000 
 1856              		.section	.bss.canRxStatus,"aw",%nobits
 1857              		.set	.LANCHOR13,. + 0
 1860              	canRxStatus:
ARM GAS  C:\Users\Administrator.DESKTOP-24M4MSA\AppData\Local\Temp\ccEGYBFN.s 			page 51


 1861 0000 00       		.space	1
 1862              		.section	.bss.canTxStatus,"aw",%nobits
 1863              		.set	.LANCHOR29,. + 0
 1866              	canTxStatus:
 1867 0000 00       		.space	1
 1868              		.section	.bss.current_rpm_A,"aw",%nobits
 1869              		.align	1
 1870              		.set	.LANCHOR14,. + 0
 1873              	current_rpm_A:
 1874 0000 0000     		.space	2
 1875              		.section	.bss.current_rpm_B,"aw",%nobits
 1876              		.align	1
 1877              		.set	.LANCHOR15,. + 0
 1880              	current_rpm_B:
 1881 0000 0000     		.space	2
 1882              		.section	.bss.current_rpm_C,"aw",%nobits
 1883              		.align	1
 1884              		.set	.LANCHOR16,. + 0
 1887              	current_rpm_C:
 1888 0000 0000     		.space	2
 1889              		.section	.bss.current_rpm_D,"aw",%nobits
 1890              		.align	1
 1891              		.set	.LANCHOR17,. + 0
 1894              	current_rpm_D:
 1895 0000 0000     		.space	2
 1896              		.section	.bss.dbus_rx_buffer,"aw",%nobits
 1897              		.align	2
 1898              		.set	.LANCHOR10,. + 0
 1901              	dbus_rx_buffer:
 1902 0000 00000000 		.space	18
 1902      00000000 
 1902      00000000 
 1902      00000000 
 1902      0000
 1903              		.section	.bss.hcan,"aw",%nobits
 1904              		.align	2
 1905              		.set	.LANCHOR2,. + 0
 1908              	hcan:
 1909 0000 00000000 		.space	40
 1909      00000000 
 1909      00000000 
 1909      00000000 
 1909      00000000 
 1910              		.section	.bss.hdma_usart1_rx,"aw",%nobits
 1911              		.align	2
 1914              	hdma_usart1_rx:
 1915 0000 00000000 		.space	68
 1915      00000000 
 1915      00000000 
 1915      00000000 
 1915      00000000 
 1916              		.section	.bss.htim2,"aw",%nobits
 1917              		.align	2
 1918              		.set	.LANCHOR3,. + 0
 1921              	htim2:
 1922 0000 00000000 		.space	72
 1922      00000000 
ARM GAS  C:\Users\Administrator.DESKTOP-24M4MSA\AppData\Local\Temp\ccEGYBFN.s 			page 52


 1922      00000000 
 1922      00000000 
 1922      00000000 
 1923              		.section	.bss.huart1,"aw",%nobits
 1924              		.align	2
 1925              		.set	.LANCHOR1,. + 0
 1928              	huart1:
 1929 0000 00000000 		.space	68
 1929      00000000 
 1929      00000000 
 1929      00000000 
 1929      00000000 
 1930              		.section	.bss.huart2,"aw",%nobits
 1931              		.align	2
 1932              		.set	.LANCHOR0,. + 0
 1935              	huart2:
 1936 0000 00000000 		.space	68
 1936      00000000 
 1936      00000000 
 1936      00000000 
 1936      00000000 
 1937              		.section	.bss.motorA,"aw",%nobits
 1938              		.align	2
 1939              		.set	.LANCHOR5,. + 0
 1942              	motorA:
 1943 0000 00000000 		.space	52
 1943      00000000 
 1943      00000000 
 1943      00000000 
 1943      00000000 
 1944              		.section	.bss.motorB,"aw",%nobits
 1945              		.align	2
 1946              		.set	.LANCHOR6,. + 0
 1949              	motorB:
 1950 0000 00000000 		.space	52
 1950      00000000 
 1950      00000000 
 1950      00000000 
 1950      00000000 
 1951              		.section	.bss.motorC,"aw",%nobits
 1952              		.align	2
 1953              		.set	.LANCHOR7,. + 0
 1956              	motorC:
 1957 0000 00000000 		.space	52
 1957      00000000 
 1957      00000000 
 1957      00000000 
 1957      00000000 
 1958              		.section	.bss.motorD,"aw",%nobits
 1959              		.align	2
 1960              		.set	.LANCHOR8,. + 0
 1963              	motorD:
 1964 0000 00000000 		.space	52
 1964      00000000 
 1964      00000000 
 1964      00000000 
 1964      00000000 
ARM GAS  C:\Users\Administrator.DESKTOP-24M4MSA\AppData\Local\Temp\ccEGYBFN.s 			page 53


 1965              		.section	.bss.rxHeader,"aw",%nobits
 1966              		.align	2
 1967              		.set	.LANCHOR12,. + 0
 1970              	rxHeader:
 1971 0000 00000000 		.space	28
 1971      00000000 
 1971      00000000 
 1971      00000000 
 1971      00000000 
 1972              		.section	.bss.txHeader,"aw",%nobits
 1973              		.align	2
 1974              		.set	.LANCHOR4,. + 0
 1977              	txHeader:
 1978 0000 00000000 		.space	24
 1978      00000000 
 1978      00000000 
 1978      00000000 
 1978      00000000 
 1979              		.section	.bss.vf,"aw",%nobits
 1980              		.align	2
 1981              		.set	.LANCHOR20,. + 0
 1984              	vf:
 1985 0000 00000000 		.space	4
 1986              		.section	.bss.vg,"aw",%nobits
 1987              		.align	2
 1988              		.set	.LANCHOR21,. + 0
 1991              	vg:
 1992 0000 00000000 		.space	4
 1993              		.section	.bss.vr,"aw",%nobits
 1994              		.align	2
 1995              		.set	.LANCHOR19,. + 0
 1998              	vr:
 1999 0000 00000000 		.space	4
 2000              		.section	.bss.vz,"aw",%nobits
 2001              		.align	2
 2002              		.set	.LANCHOR18,. + 0
 2005              	vz:
 2006 0000 00000000 		.space	4
 2007              		.section	.data.msg,"aw"
 2008              		.align	2
 2009              		.set	.LANCHOR27,. + 0
 2012              	msg:
 2013 0000 04000400 		.ascii	"\004\000\004\000\004\000\004\000"
 2013      04000400 
 2014              		.section	.data.target,"aw"
 2015              		.align	1
 2018              	target:
 2019 0000 5802     		.short	600
 2020              		.section	.data.target_A,"aw"
 2021              		.align	1
 2022              		.set	.LANCHOR23,. + 0
 2025              	target_A:
 2026 0000 B004     		.short	1200
 2027              		.section	.data.target_B,"aw"
 2028              		.align	1
 2029              		.set	.LANCHOR24,. + 0
 2032              	target_B:
ARM GAS  C:\Users\Administrator.DESKTOP-24M4MSA\AppData\Local\Temp\ccEGYBFN.s 			page 54


 2033 0000 7CFC     		.short	-900
 2034              		.section	.data.target_C,"aw"
 2035              		.align	1
 2036              		.set	.LANCHOR25,. + 0
 2039              	target_C:
 2040 0000 A8FD     		.short	-600
 2041              		.section	.data.target_D,"aw"
 2042              		.align	1
 2043              		.set	.LANCHOR26,. + 0
 2046              	target_D:
 2047 0000 5203     		.short	850
 2048              		.text
 2049              	.Letext0:
 2050              		.file 2 "c:\\program files (x86)\\gnu arm embedded toolchain\\10 2021.07\\arm-none-eabi\\include\\
 2051              		.file 3 "c:\\program files (x86)\\gnu arm embedded toolchain\\10 2021.07\\arm-none-eabi\\include\\
 2052              		.file 4 "Drivers/CMSIS/Device/ST/STM32F1xx/Include/stm32f103xb.h"
 2053              		.file 5 "Drivers/CMSIS/Device/ST/STM32F1xx/Include/stm32f1xx.h"
 2054              		.file 6 "Drivers/STM32F1xx_HAL_Driver/Inc/stm32f1xx_hal_def.h"
 2055              		.file 7 "Drivers/STM32F1xx_HAL_Driver/Inc/stm32f1xx_hal_rcc.h"
 2056              		.file 8 "Drivers/STM32F1xx_HAL_Driver/Inc/stm32f1xx_hal_rcc_ex.h"
 2057              		.file 9 "Drivers/STM32F1xx_HAL_Driver/Inc/stm32f1xx_hal_gpio.h"
 2058              		.file 10 "Drivers/STM32F1xx_HAL_Driver/Inc/stm32f1xx_hal_dma.h"
 2059              		.file 11 "Drivers/STM32F1xx_HAL_Driver/Inc/stm32f1xx_hal_can.h"
 2060              		.file 12 "Drivers/STM32F1xx_HAL_Driver/Inc/stm32f1xx_hal_tim.h"
 2061              		.file 13 "Drivers/STM32F1xx_HAL_Driver/Inc/stm32f1xx_hal_uart.h"
 2062              		.file 14 "private/pid.h"
 2063              		.file 15 "private/arm.h"
 2064              		.file 16 "Inc/main.h"
 2065              		.file 17 "Drivers/STM32F1xx_HAL_Driver/Inc/stm32f1xx_hal_cortex.h"
 2066              		.file 18 "Drivers/STM32F1xx_HAL_Driver/Inc/stm32f1xx_hal_tim_ex.h"
 2067              		.file 19 "Drivers/STM32F1xx_HAL_Driver/Inc/stm32f1xx_hal.h"
 2068              		.file 20 "<built-in>"
ARM GAS  C:\Users\Administrator.DESKTOP-24M4MSA\AppData\Local\Temp\ccEGYBFN.s 			page 55


DEFINED SYMBOLS
                            *ABS*:00000000 main.c
C:\Users\Administrator.DESKTOP-24M4MSA\AppData\Local\Temp\ccEGYBFN.s:16     .text.MX_GPIO_Init:00000000 $t
C:\Users\Administrator.DESKTOP-24M4MSA\AppData\Local\Temp\ccEGYBFN.s:23     .text.MX_GPIO_Init:00000000 MX_GPIO_Init
C:\Users\Administrator.DESKTOP-24M4MSA\AppData\Local\Temp\ccEGYBFN.s:142    .text.MX_GPIO_Init:00000080 $d
C:\Users\Administrator.DESKTOP-24M4MSA\AppData\Local\Temp\ccEGYBFN.s:148    .text.MX_USART2_UART_Init:00000000 $t
C:\Users\Administrator.DESKTOP-24M4MSA\AppData\Local\Temp\ccEGYBFN.s:154    .text.MX_USART2_UART_Init:00000000 MX_USART2_UART_Init
C:\Users\Administrator.DESKTOP-24M4MSA\AppData\Local\Temp\ccEGYBFN.s:204    .text.MX_USART2_UART_Init:00000028 $d
C:\Users\Administrator.DESKTOP-24M4MSA\AppData\Local\Temp\ccEGYBFN.s:211    .text.MX_USART1_UART_Init:00000000 $t
C:\Users\Administrator.DESKTOP-24M4MSA\AppData\Local\Temp\ccEGYBFN.s:217    .text.MX_USART1_UART_Init:00000000 MX_USART1_UART_Init
C:\Users\Administrator.DESKTOP-24M4MSA\AppData\Local\Temp\ccEGYBFN.s:267    .text.MX_USART1_UART_Init:00000028 $d
C:\Users\Administrator.DESKTOP-24M4MSA\AppData\Local\Temp\ccEGYBFN.s:274    .text.MX_DMA_Init:00000000 $t
C:\Users\Administrator.DESKTOP-24M4MSA\AppData\Local\Temp\ccEGYBFN.s:280    .text.MX_DMA_Init:00000000 MX_DMA_Init
C:\Users\Administrator.DESKTOP-24M4MSA\AppData\Local\Temp\ccEGYBFN.s:328    .text.MX_DMA_Init:00000030 $d
C:\Users\Administrator.DESKTOP-24M4MSA\AppData\Local\Temp\ccEGYBFN.s:333    .text.MX_CAN_Init:00000000 $t
C:\Users\Administrator.DESKTOP-24M4MSA\AppData\Local\Temp\ccEGYBFN.s:339    .text.MX_CAN_Init:00000000 MX_CAN_Init
C:\Users\Administrator.DESKTOP-24M4MSA\AppData\Local\Temp\ccEGYBFN.s:401    .text.MX_CAN_Init:00000030 $d
C:\Users\Administrator.DESKTOP-24M4MSA\AppData\Local\Temp\ccEGYBFN.s:407    .text.MX_TIM2_Init:00000000 $t
C:\Users\Administrator.DESKTOP-24M4MSA\AppData\Local\Temp\ccEGYBFN.s:413    .text.MX_TIM2_Init:00000000 MX_TIM2_Init
C:\Users\Administrator.DESKTOP-24M4MSA\AppData\Local\Temp\ccEGYBFN.s:556    .text.MX_TIM2_Init:000000a0 $d
C:\Users\Administrator.DESKTOP-24M4MSA\AppData\Local\Temp\ccEGYBFN.s:561    .text.SystemClock_Config:00000000 $t
C:\Users\Administrator.DESKTOP-24M4MSA\AppData\Local\Temp\ccEGYBFN.s:568    .text.SystemClock_Config:00000000 SystemClock_Config
C:\Users\Administrator.DESKTOP-24M4MSA\AppData\Local\Temp\ccEGYBFN.s:659    .text.main:00000000 $t
C:\Users\Administrator.DESKTOP-24M4MSA\AppData\Local\Temp\ccEGYBFN.s:666    .text.main:00000000 main
C:\Users\Administrator.DESKTOP-24M4MSA\AppData\Local\Temp\ccEGYBFN.s:918    .text.main:00000154 $d
C:\Users\Administrator.DESKTOP-24M4MSA\AppData\Local\Temp\ccEGYBFN.s:922    .text.main:00000164 $t
C:\Users\Administrator.DESKTOP-24M4MSA\AppData\Local\Temp\ccEGYBFN.s:971    .text.main:0000019c $d
C:\Users\Administrator.DESKTOP-24M4MSA\AppData\Local\Temp\ccEGYBFN.s:1000   .text.CAN_Set_Motor_Voltage:00000000 $t
C:\Users\Administrator.DESKTOP-24M4MSA\AppData\Local\Temp\ccEGYBFN.s:1007   .text.CAN_Set_Motor_Voltage:00000000 CAN_Set_Motor_Voltage
C:\Users\Administrator.DESKTOP-24M4MSA\AppData\Local\Temp\ccEGYBFN.s:1076   .text.Integrate_Contorl:00000000 $t
C:\Users\Administrator.DESKTOP-24M4MSA\AppData\Local\Temp\ccEGYBFN.s:1083   .text.Integrate_Contorl:00000000 Integrate_Contorl
C:\Users\Administrator.DESKTOP-24M4MSA\AppData\Local\Temp\ccEGYBFN.s:1350   .text.Integrate_Contorl:00000198 $d
C:\Users\Administrator.DESKTOP-24M4MSA\AppData\Local\Temp\ccEGYBFN.s:1381   .text.Integrate_Contorl:000001fc $t
C:\Users\Administrator.DESKTOP-24M4MSA\AppData\Local\Temp\ccEGYBFN.s:1664   .text.Integrate_Contorl:000003c0 $d
C:\Users\Administrator.DESKTOP-24M4MSA\AppData\Local\Temp\ccEGYBFN.s:1696   .text.HAL_UART_RxCpltCallback:00000000 $t
C:\Users\Administrator.DESKTOP-24M4MSA\AppData\Local\Temp\ccEGYBFN.s:1703   .text.HAL_UART_RxCpltCallback:00000000 HAL_UART_RxCpltCallback
C:\Users\Administrator.DESKTOP-24M4MSA\AppData\Local\Temp\ccEGYBFN.s:1784   .text.HAL_UART_RxCpltCallback:00000054 $d
C:\Users\Administrator.DESKTOP-24M4MSA\AppData\Local\Temp\ccEGYBFN.s:1790   .text.Error_Handler:00000000 $t
C:\Users\Administrator.DESKTOP-24M4MSA\AppData\Local\Temp\ccEGYBFN.s:1797   .text.Error_Handler:00000000 Error_Handler
C:\Users\Administrator.DESKTOP-24M4MSA\AppData\Local\Temp\ccEGYBFN.s:1840   .bss.arm:00000000 arm
C:\Users\Administrator.DESKTOP-24M4MSA\AppData\Local\Temp\ccEGYBFN.s:1963   .bss.motorD:00000000 motorD
C:\Users\Administrator.DESKTOP-24M4MSA\AppData\Local\Temp\ccEGYBFN.s:1956   .bss.motorC:00000000 motorC
C:\Users\Administrator.DESKTOP-24M4MSA\AppData\Local\Temp\ccEGYBFN.s:1949   .bss.motorB:00000000 motorB
C:\Users\Administrator.DESKTOP-24M4MSA\AppData\Local\Temp\ccEGYBFN.s:1942   .bss.motorA:00000000 motorA
C:\Users\Administrator.DESKTOP-24M4MSA\AppData\Local\Temp\ccEGYBFN.s:1991   .bss.vg:00000000 vg
C:\Users\Administrator.DESKTOP-24M4MSA\AppData\Local\Temp\ccEGYBFN.s:2005   .bss.vz:00000000 vz
C:\Users\Administrator.DESKTOP-24M4MSA\AppData\Local\Temp\ccEGYBFN.s:1998   .bss.vr:00000000 vr
C:\Users\Administrator.DESKTOP-24M4MSA\AppData\Local\Temp\ccEGYBFN.s:1984   .bss.vf:00000000 vf
C:\Users\Administrator.DESKTOP-24M4MSA\AppData\Local\Temp\ccEGYBFN.s:2018   .data.target:00000000 target
C:\Users\Administrator.DESKTOP-24M4MSA\AppData\Local\Temp\ccEGYBFN.s:1847   .bss.canMailbox:00000000 canMailbox
C:\Users\Administrator.DESKTOP-24M4MSA\AppData\Local\Temp\ccEGYBFN.s:1833   .bss.RC_CtrlData:00000000 RC_CtrlData
C:\Users\Administrator.DESKTOP-24M4MSA\AppData\Local\Temp\ccEGYBFN.s:1901   .bss.dbus_rx_buffer:00000000 dbus_rx_buffer
C:\Users\Administrator.DESKTOP-24M4MSA\AppData\Local\Temp\ccEGYBFN.s:2012   .data.msg:00000000 msg
C:\Users\Administrator.DESKTOP-24M4MSA\AppData\Local\Temp\ccEGYBFN.s:1914   .bss.hdma_usart1_rx:00000000 hdma_usart1_rx
C:\Users\Administrator.DESKTOP-24M4MSA\AppData\Local\Temp\ccEGYBFN.s:1935   .bss.huart2:00000000 huart2
C:\Users\Administrator.DESKTOP-24M4MSA\AppData\Local\Temp\ccEGYBFN.s:1928   .bss.huart1:00000000 huart1
C:\Users\Administrator.DESKTOP-24M4MSA\AppData\Local\Temp\ccEGYBFN.s:1921   .bss.htim2:00000000 htim2
ARM GAS  C:\Users\Administrator.DESKTOP-24M4MSA\AppData\Local\Temp\ccEGYBFN.s 			page 56


C:\Users\Administrator.DESKTOP-24M4MSA\AppData\Local\Temp\ccEGYBFN.s:1908   .bss.hcan:00000000 hcan
C:\Users\Administrator.DESKTOP-24M4MSA\AppData\Local\Temp\ccEGYBFN.s:1829   .bss.RC_CtrlData:00000000 $d
C:\Users\Administrator.DESKTOP-24M4MSA\AppData\Local\Temp\ccEGYBFN.s:1836   .bss.arm:00000000 $d
C:\Users\Administrator.DESKTOP-24M4MSA\AppData\Local\Temp\ccEGYBFN.s:1843   .bss.canMailbox:00000000 $d
C:\Users\Administrator.DESKTOP-24M4MSA\AppData\Local\Temp\ccEGYBFN.s:1850   .bss.canRX:00000000 $d
C:\Users\Administrator.DESKTOP-24M4MSA\AppData\Local\Temp\ccEGYBFN.s:1854   .bss.canRX:00000000 canRX
C:\Users\Administrator.DESKTOP-24M4MSA\AppData\Local\Temp\ccEGYBFN.s:1860   .bss.canRxStatus:00000000 canRxStatus
C:\Users\Administrator.DESKTOP-24M4MSA\AppData\Local\Temp\ccEGYBFN.s:1861   .bss.canRxStatus:00000000 $d
C:\Users\Administrator.DESKTOP-24M4MSA\AppData\Local\Temp\ccEGYBFN.s:1866   .bss.canTxStatus:00000000 canTxStatus
C:\Users\Administrator.DESKTOP-24M4MSA\AppData\Local\Temp\ccEGYBFN.s:1867   .bss.canTxStatus:00000000 $d
C:\Users\Administrator.DESKTOP-24M4MSA\AppData\Local\Temp\ccEGYBFN.s:1869   .bss.current_rpm_A:00000000 $d
C:\Users\Administrator.DESKTOP-24M4MSA\AppData\Local\Temp\ccEGYBFN.s:1873   .bss.current_rpm_A:00000000 current_rpm_A
C:\Users\Administrator.DESKTOP-24M4MSA\AppData\Local\Temp\ccEGYBFN.s:1876   .bss.current_rpm_B:00000000 $d
C:\Users\Administrator.DESKTOP-24M4MSA\AppData\Local\Temp\ccEGYBFN.s:1880   .bss.current_rpm_B:00000000 current_rpm_B
C:\Users\Administrator.DESKTOP-24M4MSA\AppData\Local\Temp\ccEGYBFN.s:1883   .bss.current_rpm_C:00000000 $d
C:\Users\Administrator.DESKTOP-24M4MSA\AppData\Local\Temp\ccEGYBFN.s:1887   .bss.current_rpm_C:00000000 current_rpm_C
C:\Users\Administrator.DESKTOP-24M4MSA\AppData\Local\Temp\ccEGYBFN.s:1890   .bss.current_rpm_D:00000000 $d
C:\Users\Administrator.DESKTOP-24M4MSA\AppData\Local\Temp\ccEGYBFN.s:1894   .bss.current_rpm_D:00000000 current_rpm_D
C:\Users\Administrator.DESKTOP-24M4MSA\AppData\Local\Temp\ccEGYBFN.s:1897   .bss.dbus_rx_buffer:00000000 $d
C:\Users\Administrator.DESKTOP-24M4MSA\AppData\Local\Temp\ccEGYBFN.s:1904   .bss.hcan:00000000 $d
C:\Users\Administrator.DESKTOP-24M4MSA\AppData\Local\Temp\ccEGYBFN.s:1911   .bss.hdma_usart1_rx:00000000 $d
C:\Users\Administrator.DESKTOP-24M4MSA\AppData\Local\Temp\ccEGYBFN.s:1917   .bss.htim2:00000000 $d
C:\Users\Administrator.DESKTOP-24M4MSA\AppData\Local\Temp\ccEGYBFN.s:1924   .bss.huart1:00000000 $d
C:\Users\Administrator.DESKTOP-24M4MSA\AppData\Local\Temp\ccEGYBFN.s:1931   .bss.huart2:00000000 $d
C:\Users\Administrator.DESKTOP-24M4MSA\AppData\Local\Temp\ccEGYBFN.s:1938   .bss.motorA:00000000 $d
C:\Users\Administrator.DESKTOP-24M4MSA\AppData\Local\Temp\ccEGYBFN.s:1945   .bss.motorB:00000000 $d
C:\Users\Administrator.DESKTOP-24M4MSA\AppData\Local\Temp\ccEGYBFN.s:1952   .bss.motorC:00000000 $d
C:\Users\Administrator.DESKTOP-24M4MSA\AppData\Local\Temp\ccEGYBFN.s:1959   .bss.motorD:00000000 $d
C:\Users\Administrator.DESKTOP-24M4MSA\AppData\Local\Temp\ccEGYBFN.s:1966   .bss.rxHeader:00000000 $d
C:\Users\Administrator.DESKTOP-24M4MSA\AppData\Local\Temp\ccEGYBFN.s:1970   .bss.rxHeader:00000000 rxHeader
C:\Users\Administrator.DESKTOP-24M4MSA\AppData\Local\Temp\ccEGYBFN.s:1973   .bss.txHeader:00000000 $d
C:\Users\Administrator.DESKTOP-24M4MSA\AppData\Local\Temp\ccEGYBFN.s:1977   .bss.txHeader:00000000 txHeader
C:\Users\Administrator.DESKTOP-24M4MSA\AppData\Local\Temp\ccEGYBFN.s:1980   .bss.vf:00000000 $d
C:\Users\Administrator.DESKTOP-24M4MSA\AppData\Local\Temp\ccEGYBFN.s:1987   .bss.vg:00000000 $d
C:\Users\Administrator.DESKTOP-24M4MSA\AppData\Local\Temp\ccEGYBFN.s:1994   .bss.vr:00000000 $d
C:\Users\Administrator.DESKTOP-24M4MSA\AppData\Local\Temp\ccEGYBFN.s:2001   .bss.vz:00000000 $d
C:\Users\Administrator.DESKTOP-24M4MSA\AppData\Local\Temp\ccEGYBFN.s:2008   .data.msg:00000000 $d
C:\Users\Administrator.DESKTOP-24M4MSA\AppData\Local\Temp\ccEGYBFN.s:2015   .data.target:00000000 $d
C:\Users\Administrator.DESKTOP-24M4MSA\AppData\Local\Temp\ccEGYBFN.s:2021   .data.target_A:00000000 $d
C:\Users\Administrator.DESKTOP-24M4MSA\AppData\Local\Temp\ccEGYBFN.s:2025   .data.target_A:00000000 target_A
C:\Users\Administrator.DESKTOP-24M4MSA\AppData\Local\Temp\ccEGYBFN.s:2028   .data.target_B:00000000 $d
C:\Users\Administrator.DESKTOP-24M4MSA\AppData\Local\Temp\ccEGYBFN.s:2032   .data.target_B:00000000 target_B
C:\Users\Administrator.DESKTOP-24M4MSA\AppData\Local\Temp\ccEGYBFN.s:2035   .data.target_C:00000000 $d
C:\Users\Administrator.DESKTOP-24M4MSA\AppData\Local\Temp\ccEGYBFN.s:2039   .data.target_C:00000000 target_C
C:\Users\Administrator.DESKTOP-24M4MSA\AppData\Local\Temp\ccEGYBFN.s:2042   .data.target_D:00000000 $d
C:\Users\Administrator.DESKTOP-24M4MSA\AppData\Local\Temp\ccEGYBFN.s:2046   .data.target_D:00000000 target_D

UNDEFINED SYMBOLS
HAL_GPIO_WritePin
HAL_GPIO_Init
HAL_UART_Init
HAL_NVIC_SetPriority
HAL_NVIC_EnableIRQ
HAL_CAN_Init
HAL_TIM_Base_Init
HAL_TIM_ConfigClockSource
HAL_TIM_PWM_Init
ARM GAS  C:\Users\Administrator.DESKTOP-24M4MSA\AppData\Local\Temp\ccEGYBFN.s 			page 57


HAL_TIMEx_MasterConfigSynchronization
HAL_TIM_PWM_ConfigChannel
HAL_TIM_MspPostInit
memset
HAL_RCC_OscConfig
HAL_RCC_ClockConfig
HAL_Init
HAL_CAN_ConfigFilter
HAL_CAN_Start
HAL_TIM_PWM_Start
pid_init
arm_init
HAL_UART_Receive_DMA
move_arm
HAL_CAN_GetRxMessage
__aeabi_i2d
__aeabi_dmul
__aeabi_dadd
__aeabi_d2iz
__aeabi_i2f
__aeabi_f2iz
pid_calc
HAL_CAN_AddTxMessage
