ARM GAS  C:\Users\Administrator.DESKTOP-24M4MSA\AppData\Local\Temp\ccbl61Tc.s 			page 1


   1              		.cpu cortex-m3
   2              		.eabi_attribute 20, 1
   3              		.eabi_attribute 21, 1
   4              		.eabi_attribute 23, 3
   5              		.eabi_attribute 24, 1
   6              		.eabi_attribute 25, 1
   7              		.eabi_attribute 26, 1
   8              		.eabi_attribute 30, 1
   9              		.eabi_attribute 34, 1
  10              		.eabi_attribute 18, 4
  11              		.file	"main.c"
  12              		.text
  13              	.Ltext0:
  14              		.cfi_sections	.debug_frame
  15              		.section	.text.MX_GPIO_Init,"ax",%progbits
  16              		.align	1
  17              		.arch armv7-m
  18              		.syntax unified
  19              		.thumb
  20              		.thumb_func
  21              		.fpu softvfp
  23              	MX_GPIO_Init:
  24              	.LFB70:
  25              		.file 1 "Src/main.c"
   1:Src/main.c    **** /* USER CODE BEGIN Header */
   2:Src/main.c    **** /**
   3:Src/main.c    ****  ******************************************************************************
   4:Src/main.c    ****  * @file           : main.c
   5:Src/main.c    ****  * @brief          : Main program body
   6:Src/main.c    ****  ******************************************************************************
   7:Src/main.c    ****  * @attention
   8:Src/main.c    ****  *
   9:Src/main.c    ****  * <h2><center>&copy; Copyright (c) 2021 STMicroelectronics.
  10:Src/main.c    ****  * All rights reserved.</center></h2>
  11:Src/main.c    ****  *
  12:Src/main.c    ****  * This software component is licensed by ST under BSD 3-Clause license,
  13:Src/main.c    ****  * the "License"; You may not use this file except in compliance with the
  14:Src/main.c    ****  * License. You may obtain a copy of the License at:
  15:Src/main.c    ****  *                        opensource.org/licenses/BSD-3-Clause
  16:Src/main.c    ****  *
  17:Src/main.c    ****  ******************************************************************************
  18:Src/main.c    ****  */
  19:Src/main.c    **** /* USER CODE END Header */
  20:Src/main.c    **** 
  21:Src/main.c    **** /* Includes ------------------------------------------------------------------*/
  22:Src/main.c    **** #include "main.h"
  23:Src/main.c    **** 
  24:Src/main.c    **** /* Private includes ----------------------------------------------------------*/
  25:Src/main.c    **** /* USER CODE BEGIN Includes */
  26:Src/main.c    **** 
  27:Src/main.c    **** /* USER CODE END Includes */
  28:Src/main.c    **** 
  29:Src/main.c    **** /* Private typedef -----------------------------------------------------------*/
  30:Src/main.c    **** /* USER CODE BEGIN PTD */
  31:Src/main.c    **** 
  32:Src/main.c    **** /* USER CODE END PTD */
  33:Src/main.c    **** 
ARM GAS  C:\Users\Administrator.DESKTOP-24M4MSA\AppData\Local\Temp\ccbl61Tc.s 			page 2


  34:Src/main.c    **** /* Private define ------------------------------------------------------------*/
  35:Src/main.c    **** /* USER CODE BEGIN PD */
  36:Src/main.c    **** // #define kp 5
  37:Src/main.c    **** // #define ki 0.1
  38:Src/main.c    **** // #define kd 2
  39:Src/main.c    **** #define i_max 6000
  40:Src/main.c    **** #define out_max 18000
  41:Src/main.c    **** /* USER CODE END PD */
  42:Src/main.c    **** 
  43:Src/main.c    **** /* Private macro -------------------------------------------------------------*/
  44:Src/main.c    **** /* USER CODE BEGIN PM */
  45:Src/main.c    **** 
  46:Src/main.c    **** /* USER CODE END PM */
  47:Src/main.c    **** 
  48:Src/main.c    **** /* Private variables ---------------------------------------------------------*/
  49:Src/main.c    **** CAN_HandleTypeDef hcan;
  50:Src/main.c    **** 
  51:Src/main.c    **** TIM_HandleTypeDef htim1;
  52:Src/main.c    **** 
  53:Src/main.c    **** UART_HandleTypeDef huart2;
  54:Src/main.c    **** 
  55:Src/main.c    **** /* USER CODE BEGIN PV */
  56:Src/main.c    **** uint8_t msg[8] = {0, 0, 0, 0, 0, 0, 0, 0};                   // CAN Bus Send Buffer
  57:Src/main.c    **** static volatile uint8_t canRX[8] = {0, 0, 0, 0, 0, 0, 0, 0}; // CAN Bus Receive Buffer
  58:Src/main.c    **** static CAN_RxHeaderTypeDef rxHeader;                         // CAN Bus Transmit Header
  59:Src/main.c    **** static volatile HAL_StatusTypeDef canTxStatus = HAL_OK;
  60:Src/main.c    **** static volatile HAL_StatusTypeDef canRxStatus = HAL_OK;
  61:Src/main.c    **** uint16_t target = 600;
  62:Src/main.c    **** int16_t current_rpm_A,current_rpm_B,current_rpm_C,current_rpm_D;
  63:Src/main.c    **** pid_struct_t motorA, motorB, motorC, motorD;
  64:Src/main.c    **** /* USER CODE END PV */
  65:Src/main.c    **** 
  66:Src/main.c    **** /* Private function prototypes -----------------------------------------------*/
  67:Src/main.c    **** void SystemClock_Config(void);
  68:Src/main.c    **** static void MX_GPIO_Init(void);
  69:Src/main.c    **** static void MX_TIM1_Init(void);
  70:Src/main.c    **** static void MX_USART2_UART_Init(void);
  71:Src/main.c    **** static void MX_CAN_Init(void);
  72:Src/main.c    **** /* USER CODE BEGIN PFP */
  73:Src/main.c    **** // HAL_StatusTypeDef CAN_RxFifo1MsgPendingCallBack(CAN_HandleTypeDef *hcan);
  74:Src/main.c    **** void CAN_Set_Motor_Voltage(uint16_t v1, uint16_t v2, uint16_t v3, uint16_t v4, uint8_t target_buffe
  75:Src/main.c    **** /* USER CODE END PFP */
  76:Src/main.c    **** 
  77:Src/main.c    **** /* Private user code ---------------------------------------------------------*/
  78:Src/main.c    **** /* USER CODE BEGIN 0 */
  79:Src/main.c    **** 
  80:Src/main.c    **** /* USER CODE END 0 */
  81:Src/main.c    **** 
  82:Src/main.c    **** /**
  83:Src/main.c    ****   * @brief  The application entry point.
  84:Src/main.c    ****   * @retval int
  85:Src/main.c    ****   */
  86:Src/main.c    **** int main(void)
  87:Src/main.c    **** {
  88:Src/main.c    ****   /* USER CODE BEGIN 1 */
  89:Src/main.c    **** 
  90:Src/main.c    ****   /* USER CODE END 1 */
ARM GAS  C:\Users\Administrator.DESKTOP-24M4MSA\AppData\Local\Temp\ccbl61Tc.s 			page 3


  91:Src/main.c    **** 
  92:Src/main.c    ****   /* MCU Configuration--------------------------------------------------------*/
  93:Src/main.c    **** 
  94:Src/main.c    ****   /* Reset of all peripherals, Initializes the Flash interface and the Systick. */
  95:Src/main.c    ****   HAL_Init();
  96:Src/main.c    **** 
  97:Src/main.c    ****   /* USER CODE BEGIN Init */
  98:Src/main.c    **** 
  99:Src/main.c    ****   /* USER CODE END Init */
 100:Src/main.c    **** 
 101:Src/main.c    ****   /* Configure the system clock */
 102:Src/main.c    ****   SystemClock_Config();
 103:Src/main.c    **** 
 104:Src/main.c    ****   /* USER CODE BEGIN SysInit */
 105:Src/main.c    **** 
 106:Src/main.c    ****   /* USER CODE END SysInit */
 107:Src/main.c    **** 
 108:Src/main.c    ****   /* Initialize all configured peripherals */
 109:Src/main.c    ****   MX_GPIO_Init();
 110:Src/main.c    ****   MX_TIM1_Init();
 111:Src/main.c    ****   MX_USART2_UART_Init();
 112:Src/main.c    ****   MX_CAN_Init();
 113:Src/main.c    ****   /* USER CODE BEGIN 2 */
 114:Src/main.c    ****   CAN_TxHeaderTypeDef txHeader;                                // CAN Bus Receive Header
 115:Src/main.c    ****   static volatile uint16_t encoder = 0;
 116:Src/main.c    ****   CAN_FilterTypeDef canfil; // CAN Bus Filter
 117:Src/main.c    ****   uint32_t canMailbox;
 118:Src/main.c    **** 
 119:Src/main.c    ****   canfil.FilterBank = 0;
 120:Src/main.c    ****   canfil.FilterMode = CAN_FILTERMODE_IDMASK;
 121:Src/main.c    ****   canfil.FilterFIFOAssignment = CAN_RX_FIFO1;
 122:Src/main.c    ****   canfil.FilterIdHigh = 0;
 123:Src/main.c    ****   canfil.FilterIdLow = 0;
 124:Src/main.c    ****   canfil.FilterMaskIdHigh = 0;
 125:Src/main.c    ****   canfil.FilterMaskIdLow = 0;
 126:Src/main.c    ****   canfil.FilterScale = CAN_FILTERSCALE_32BIT;
 127:Src/main.c    ****   canfil.FilterActivation = ENABLE;
 128:Src/main.c    ****   canfil.SlaveStartFilterBank = 14;
 129:Src/main.c    **** 
 130:Src/main.c    ****   txHeader.DLC = 8; // Number of bites to be transmitted max- 8
 131:Src/main.c    ****   txHeader.IDE = CAN_ID_STD;
 132:Src/main.c    ****   txHeader.RTR = CAN_RTR_DATA;
 133:Src/main.c    ****   txHeader.StdId = 0x200;
 134:Src/main.c    ****   txHeader.ExtId = 0x0;
 135:Src/main.c    ****   txHeader.TransmitGlobalTime = DISABLE;
 136:Src/main.c    **** 
 137:Src/main.c    ****   HAL_CAN_ConfigFilter(&hcan, &canfil);
 138:Src/main.c    ****   // HAL_CAN_ActivateNotification(&hcan, CAN_IT_RX_FIFO1_MSG_PENDING);
 139:Src/main.c    ****   HAL_CAN_Start(&hcan);
 140:Src/main.c    **** 
 141:Src/main.c    ****   pid_init(&motorA, 5, 0.1, 2, 8000, 16000);
 142:Src/main.c    ****   pid_init(&motorB, 2, 0.2, 4, 8000, 16000);
 143:Src/main.c    ****   pid_init(&motorC, 3, 0.5, 4, 8000, 16000);
 144:Src/main.c    ****   pid_init(&motorD, 5, 0.1, 2, 8000, 16000);
 145:Src/main.c    ****   /* USER CODE END 2 */
 146:Src/main.c    **** 
 147:Src/main.c    ****   /* Infinite loop */
ARM GAS  C:\Users\Administrator.DESKTOP-24M4MSA\AppData\Local\Temp\ccbl61Tc.s 			page 4


 148:Src/main.c    ****   /* USER CODE BEGIN WHILE */
 149:Src/main.c    ****   while (1)
 150:Src/main.c    ****   {
 151:Src/main.c    ****     /* USER CODE END WHILE */
 152:Src/main.c    **** 
 153:Src/main.c    ****     /* USER CODE BEGIN 3 */
 154:Src/main.c    ****     canTxStatus = HAL_CAN_AddTxMessage(&hcan, &txHeader, msg, &canMailbox);
 155:Src/main.c    ****     canRxStatus = HAL_CAN_GetRxMessage(&hcan, CAN_RX_FIFO1, &rxHeader, (uint8_t *)canRX);
 156:Src/main.c    ****     current_rpm_B = 1-(~((canRX[2]<<8)+canRX[3]));
 157:Src/main.c    ****     CAN_Set_Motor_Voltage(pid_calc(&motorC,target,current_rpm_A),pid_calc(&motorB,target,current_rp
 158:Src/main.c    ****     // encoder = canRX[0] << 8 | canRX[1];
 159:Src/main.c    ****     HAL_Delay(5);
 160:Src/main.c    ****   }
 161:Src/main.c    ****   /* USER CODE END 3 */
 162:Src/main.c    **** }
 163:Src/main.c    **** 
 164:Src/main.c    **** /**
 165:Src/main.c    ****   * @brief System Clock Configuration
 166:Src/main.c    ****   * @retval None
 167:Src/main.c    ****   */
 168:Src/main.c    **** void SystemClock_Config(void)
 169:Src/main.c    **** {
 170:Src/main.c    ****   RCC_OscInitTypeDef RCC_OscInitStruct = {0};
 171:Src/main.c    ****   RCC_ClkInitTypeDef RCC_ClkInitStruct = {0};
 172:Src/main.c    **** 
 173:Src/main.c    ****   /** Initializes the CPU, AHB and APB busses clocks
 174:Src/main.c    ****   */
 175:Src/main.c    ****   RCC_OscInitStruct.OscillatorType = RCC_OSCILLATORTYPE_HSE;
 176:Src/main.c    ****   RCC_OscInitStruct.HSEState = RCC_HSE_ON;
 177:Src/main.c    ****   RCC_OscInitStruct.HSEPredivValue = RCC_HSE_PREDIV_DIV1;
 178:Src/main.c    ****   RCC_OscInitStruct.HSIState = RCC_HSI_ON;
 179:Src/main.c    ****   RCC_OscInitStruct.PLL.PLLState = RCC_PLL_ON;
 180:Src/main.c    ****   RCC_OscInitStruct.PLL.PLLSource = RCC_PLLSOURCE_HSE;
 181:Src/main.c    ****   RCC_OscInitStruct.PLL.PLLMUL = RCC_PLL_MUL9;
 182:Src/main.c    ****   if (HAL_RCC_OscConfig(&RCC_OscInitStruct) != HAL_OK)
 183:Src/main.c    ****   {
 184:Src/main.c    ****     Error_Handler();
 185:Src/main.c    ****   }
 186:Src/main.c    ****   /** Initializes the CPU, AHB and APB busses clocks
 187:Src/main.c    ****   */
 188:Src/main.c    ****   RCC_ClkInitStruct.ClockType = RCC_CLOCKTYPE_HCLK|RCC_CLOCKTYPE_SYSCLK
 189:Src/main.c    ****                               |RCC_CLOCKTYPE_PCLK1|RCC_CLOCKTYPE_PCLK2;
 190:Src/main.c    ****   RCC_ClkInitStruct.SYSCLKSource = RCC_SYSCLKSOURCE_PLLCLK;
 191:Src/main.c    ****   RCC_ClkInitStruct.AHBCLKDivider = RCC_SYSCLK_DIV1;
 192:Src/main.c    ****   RCC_ClkInitStruct.APB1CLKDivider = RCC_HCLK_DIV2;
 193:Src/main.c    ****   RCC_ClkInitStruct.APB2CLKDivider = RCC_HCLK_DIV1;
 194:Src/main.c    **** 
 195:Src/main.c    ****   if (HAL_RCC_ClockConfig(&RCC_ClkInitStruct, FLASH_LATENCY_2) != HAL_OK)
 196:Src/main.c    ****   {
 197:Src/main.c    ****     Error_Handler();
 198:Src/main.c    ****   }
 199:Src/main.c    **** }
 200:Src/main.c    **** 
 201:Src/main.c    **** /**
 202:Src/main.c    ****   * @brief CAN Initialization Function
 203:Src/main.c    ****   * @param None
 204:Src/main.c    ****   * @retval None
ARM GAS  C:\Users\Administrator.DESKTOP-24M4MSA\AppData\Local\Temp\ccbl61Tc.s 			page 5


 205:Src/main.c    ****   */
 206:Src/main.c    **** static void MX_CAN_Init(void)
 207:Src/main.c    **** {
 208:Src/main.c    **** 
 209:Src/main.c    ****   /* USER CODE BEGIN CAN_Init 0 */
 210:Src/main.c    **** 
 211:Src/main.c    ****   /* USER CODE END CAN_Init 0 */
 212:Src/main.c    **** 
 213:Src/main.c    ****   /* USER CODE BEGIN CAN_Init 1 */
 214:Src/main.c    **** 
 215:Src/main.c    ****   /* USER CODE END CAN_Init 1 */
 216:Src/main.c    ****   hcan.Instance = CAN1;
 217:Src/main.c    ****   hcan.Init.Prescaler = 4;
 218:Src/main.c    ****   hcan.Init.Mode = CAN_MODE_NORMAL;
 219:Src/main.c    ****   hcan.Init.SyncJumpWidth = CAN_SJW_1TQ;
 220:Src/main.c    ****   hcan.Init.TimeSeg1 = CAN_BS1_6TQ;
 221:Src/main.c    ****   hcan.Init.TimeSeg2 = CAN_BS2_2TQ;
 222:Src/main.c    ****   hcan.Init.TimeTriggeredMode = DISABLE;
 223:Src/main.c    ****   hcan.Init.AutoBusOff = DISABLE;
 224:Src/main.c    ****   hcan.Init.AutoWakeUp = DISABLE;
 225:Src/main.c    ****   hcan.Init.AutoRetransmission = DISABLE;
 226:Src/main.c    ****   hcan.Init.ReceiveFifoLocked = DISABLE;
 227:Src/main.c    ****   hcan.Init.TransmitFifoPriority = DISABLE;
 228:Src/main.c    ****   if (HAL_CAN_Init(&hcan) != HAL_OK)
 229:Src/main.c    ****   {
 230:Src/main.c    ****     Error_Handler();
 231:Src/main.c    ****   }
 232:Src/main.c    ****   /* USER CODE BEGIN CAN_Init 2 */
 233:Src/main.c    **** 
 234:Src/main.c    ****   /* USER CODE END CAN_Init 2 */
 235:Src/main.c    **** 
 236:Src/main.c    **** }
 237:Src/main.c    **** 
 238:Src/main.c    **** /**
 239:Src/main.c    ****   * @brief TIM1 Initialization Function
 240:Src/main.c    ****   * @param None
 241:Src/main.c    ****   * @retval None
 242:Src/main.c    ****   */
 243:Src/main.c    **** static void MX_TIM1_Init(void)
 244:Src/main.c    **** {
 245:Src/main.c    **** 
 246:Src/main.c    ****   /* USER CODE BEGIN TIM1_Init 0 */
 247:Src/main.c    **** 
 248:Src/main.c    ****   /* USER CODE END TIM1_Init 0 */
 249:Src/main.c    **** 
 250:Src/main.c    ****   TIM_ClockConfigTypeDef sClockSourceConfig = {0};
 251:Src/main.c    ****   TIM_MasterConfigTypeDef sMasterConfig = {0};
 252:Src/main.c    ****   TIM_OC_InitTypeDef sConfigOC = {0};
 253:Src/main.c    ****   TIM_BreakDeadTimeConfigTypeDef sBreakDeadTimeConfig = {0};
 254:Src/main.c    **** 
 255:Src/main.c    ****   /* USER CODE BEGIN TIM1_Init 1 */
 256:Src/main.c    **** 
 257:Src/main.c    ****   /* USER CODE END TIM1_Init 1 */
 258:Src/main.c    ****   htim1.Instance = TIM1;
 259:Src/main.c    ****   htim1.Init.Prescaler = 0;
 260:Src/main.c    ****   htim1.Init.CounterMode = TIM_COUNTERMODE_UP;
 261:Src/main.c    ****   htim1.Init.Period = 0;
ARM GAS  C:\Users\Administrator.DESKTOP-24M4MSA\AppData\Local\Temp\ccbl61Tc.s 			page 6


 262:Src/main.c    ****   htim1.Init.ClockDivision = TIM_CLOCKDIVISION_DIV1;
 263:Src/main.c    ****   htim1.Init.RepetitionCounter = 0;
 264:Src/main.c    ****   htim1.Init.AutoReloadPreload = TIM_AUTORELOAD_PRELOAD_DISABLE;
 265:Src/main.c    ****   if (HAL_TIM_Base_Init(&htim1) != HAL_OK)
 266:Src/main.c    ****   {
 267:Src/main.c    ****     Error_Handler();
 268:Src/main.c    ****   }
 269:Src/main.c    ****   sClockSourceConfig.ClockSource = TIM_CLOCKSOURCE_INTERNAL;
 270:Src/main.c    ****   if (HAL_TIM_ConfigClockSource(&htim1, &sClockSourceConfig) != HAL_OK)
 271:Src/main.c    ****   {
 272:Src/main.c    ****     Error_Handler();
 273:Src/main.c    ****   }
 274:Src/main.c    ****   if (HAL_TIM_OC_Init(&htim1) != HAL_OK)
 275:Src/main.c    ****   {
 276:Src/main.c    ****     Error_Handler();
 277:Src/main.c    ****   }
 278:Src/main.c    ****   sMasterConfig.MasterOutputTrigger = TIM_TRGO_RESET;
 279:Src/main.c    ****   sMasterConfig.MasterSlaveMode = TIM_MASTERSLAVEMODE_DISABLE;
 280:Src/main.c    ****   if (HAL_TIMEx_MasterConfigSynchronization(&htim1, &sMasterConfig) != HAL_OK)
 281:Src/main.c    ****   {
 282:Src/main.c    ****     Error_Handler();
 283:Src/main.c    ****   }
 284:Src/main.c    ****   sConfigOC.OCMode = TIM_OCMODE_TIMING;
 285:Src/main.c    ****   sConfigOC.Pulse = 0;
 286:Src/main.c    ****   sConfigOC.OCPolarity = TIM_OCPOLARITY_HIGH;
 287:Src/main.c    ****   sConfigOC.OCNPolarity = TIM_OCNPOLARITY_HIGH;
 288:Src/main.c    ****   sConfigOC.OCFastMode = TIM_OCFAST_DISABLE;
 289:Src/main.c    ****   sConfigOC.OCIdleState = TIM_OCIDLESTATE_RESET;
 290:Src/main.c    ****   sConfigOC.OCNIdleState = TIM_OCNIDLESTATE_RESET;
 291:Src/main.c    ****   if (HAL_TIM_OC_ConfigChannel(&htim1, &sConfigOC, TIM_CHANNEL_1) != HAL_OK)
 292:Src/main.c    ****   {
 293:Src/main.c    ****     Error_Handler();
 294:Src/main.c    ****   }
 295:Src/main.c    ****   sBreakDeadTimeConfig.OffStateRunMode = TIM_OSSR_DISABLE;
 296:Src/main.c    ****   sBreakDeadTimeConfig.OffStateIDLEMode = TIM_OSSI_DISABLE;
 297:Src/main.c    ****   sBreakDeadTimeConfig.LockLevel = TIM_LOCKLEVEL_OFF;
 298:Src/main.c    ****   sBreakDeadTimeConfig.DeadTime = 0;
 299:Src/main.c    ****   sBreakDeadTimeConfig.BreakState = TIM_BREAK_DISABLE;
 300:Src/main.c    ****   sBreakDeadTimeConfig.BreakPolarity = TIM_BREAKPOLARITY_HIGH;
 301:Src/main.c    ****   sBreakDeadTimeConfig.AutomaticOutput = TIM_AUTOMATICOUTPUT_DISABLE;
 302:Src/main.c    ****   if (HAL_TIMEx_ConfigBreakDeadTime(&htim1, &sBreakDeadTimeConfig) != HAL_OK)
 303:Src/main.c    ****   {
 304:Src/main.c    ****     Error_Handler();
 305:Src/main.c    ****   }
 306:Src/main.c    ****   /* USER CODE BEGIN TIM1_Init 2 */
 307:Src/main.c    **** 
 308:Src/main.c    ****   /* USER CODE END TIM1_Init 2 */
 309:Src/main.c    ****   HAL_TIM_MspPostInit(&htim1);
 310:Src/main.c    **** 
 311:Src/main.c    **** }
 312:Src/main.c    **** 
 313:Src/main.c    **** /**
 314:Src/main.c    ****   * @brief USART2 Initialization Function
 315:Src/main.c    ****   * @param None
 316:Src/main.c    ****   * @retval None
 317:Src/main.c    ****   */
 318:Src/main.c    **** static void MX_USART2_UART_Init(void)
ARM GAS  C:\Users\Administrator.DESKTOP-24M4MSA\AppData\Local\Temp\ccbl61Tc.s 			page 7


 319:Src/main.c    **** {
 320:Src/main.c    **** 
 321:Src/main.c    ****   /* USER CODE BEGIN USART2_Init 0 */
 322:Src/main.c    **** 
 323:Src/main.c    ****   /* USER CODE END USART2_Init 0 */
 324:Src/main.c    **** 
 325:Src/main.c    ****   /* USER CODE BEGIN USART2_Init 1 */
 326:Src/main.c    **** 
 327:Src/main.c    ****   /* USER CODE END USART2_Init 1 */
 328:Src/main.c    ****   huart2.Instance = USART2;
 329:Src/main.c    ****   huart2.Init.BaudRate = 9600;
 330:Src/main.c    ****   huart2.Init.WordLength = UART_WORDLENGTH_8B;
 331:Src/main.c    ****   huart2.Init.StopBits = UART_STOPBITS_1;
 332:Src/main.c    ****   huart2.Init.Parity = UART_PARITY_NONE;
 333:Src/main.c    ****   huart2.Init.Mode = UART_MODE_TX_RX;
 334:Src/main.c    ****   huart2.Init.HwFlowCtl = UART_HWCONTROL_NONE;
 335:Src/main.c    ****   huart2.Init.OverSampling = UART_OVERSAMPLING_16;
 336:Src/main.c    ****   if (HAL_UART_Init(&huart2) != HAL_OK)
 337:Src/main.c    ****   {
 338:Src/main.c    ****     Error_Handler();
 339:Src/main.c    ****   }
 340:Src/main.c    ****   /* USER CODE BEGIN USART2_Init 2 */
 341:Src/main.c    **** 
 342:Src/main.c    ****   /* USER CODE END USART2_Init 2 */
 343:Src/main.c    **** 
 344:Src/main.c    **** }
 345:Src/main.c    **** 
 346:Src/main.c    **** /**
 347:Src/main.c    ****   * @brief GPIO Initialization Function
 348:Src/main.c    ****   * @param None
 349:Src/main.c    ****   * @retval None
 350:Src/main.c    ****   */
 351:Src/main.c    **** static void MX_GPIO_Init(void)
 352:Src/main.c    **** {
  26              		.loc 1 352 1 view -0
  27              		.cfi_startproc
  28              		@ args = 0, pretend = 0, frame = 32
  29              		@ frame_needed = 0, uses_anonymous_args = 0
  30 0000 30B5     		push	{r4, r5, lr}
  31              	.LCFI0:
  32              		.cfi_def_cfa_offset 12
  33              		.cfi_offset 4, -12
  34              		.cfi_offset 5, -8
  35              		.cfi_offset 14, -4
  36 0002 89B0     		sub	sp, sp, #36
  37              	.LCFI1:
  38              		.cfi_def_cfa_offset 48
 353:Src/main.c    ****   GPIO_InitTypeDef GPIO_InitStruct = {0};
  39              		.loc 1 353 3 view .LVU1
  40              		.loc 1 353 20 is_stmt 0 view .LVU2
  41 0004 0024     		movs	r4, #0
  42 0006 0494     		str	r4, [sp, #16]
  43 0008 0594     		str	r4, [sp, #20]
  44 000a 0694     		str	r4, [sp, #24]
  45 000c 0794     		str	r4, [sp, #28]
 354:Src/main.c    **** 
 355:Src/main.c    ****   /* GPIO Ports Clock Enable */
ARM GAS  C:\Users\Administrator.DESKTOP-24M4MSA\AppData\Local\Temp\ccbl61Tc.s 			page 8


 356:Src/main.c    ****   __HAL_RCC_GPIOC_CLK_ENABLE();
  46              		.loc 1 356 3 is_stmt 1 view .LVU3
  47              	.LBB2:
  48              		.loc 1 356 3 view .LVU4
  49              		.loc 1 356 3 view .LVU5
  50 000e 184B     		ldr	r3, .L3
  51 0010 9A69     		ldr	r2, [r3, #24]
  52 0012 42F01002 		orr	r2, r2, #16
  53 0016 9A61     		str	r2, [r3, #24]
  54              		.loc 1 356 3 view .LVU6
  55 0018 9A69     		ldr	r2, [r3, #24]
  56 001a 02F01002 		and	r2, r2, #16
  57 001e 0192     		str	r2, [sp, #4]
  58              		.loc 1 356 3 view .LVU7
  59 0020 019A     		ldr	r2, [sp, #4]
  60              	.LBE2:
  61              		.loc 1 356 3 view .LVU8
 357:Src/main.c    ****   __HAL_RCC_GPIOD_CLK_ENABLE();
  62              		.loc 1 357 3 view .LVU9
  63              	.LBB3:
  64              		.loc 1 357 3 view .LVU10
  65              		.loc 1 357 3 view .LVU11
  66 0022 9A69     		ldr	r2, [r3, #24]
  67 0024 42F02002 		orr	r2, r2, #32
  68 0028 9A61     		str	r2, [r3, #24]
  69              		.loc 1 357 3 view .LVU12
  70 002a 9A69     		ldr	r2, [r3, #24]
  71 002c 02F02002 		and	r2, r2, #32
  72 0030 0292     		str	r2, [sp, #8]
  73              		.loc 1 357 3 view .LVU13
  74 0032 029A     		ldr	r2, [sp, #8]
  75              	.LBE3:
  76              		.loc 1 357 3 view .LVU14
 358:Src/main.c    ****   __HAL_RCC_GPIOA_CLK_ENABLE();
  77              		.loc 1 358 3 view .LVU15
  78              	.LBB4:
  79              		.loc 1 358 3 view .LVU16
  80              		.loc 1 358 3 view .LVU17
  81 0034 9A69     		ldr	r2, [r3, #24]
  82 0036 42F00402 		orr	r2, r2, #4
  83 003a 9A61     		str	r2, [r3, #24]
  84              		.loc 1 358 3 view .LVU18
  85 003c 9B69     		ldr	r3, [r3, #24]
  86 003e 03F00403 		and	r3, r3, #4
  87 0042 0393     		str	r3, [sp, #12]
  88              		.loc 1 358 3 view .LVU19
  89 0044 039B     		ldr	r3, [sp, #12]
  90              	.LBE4:
  91              		.loc 1 358 3 view .LVU20
 359:Src/main.c    **** 
 360:Src/main.c    ****   /*Configure GPIO pin Output Level */
 361:Src/main.c    ****   HAL_GPIO_WritePin(LED_GPIO_Port, LED_Pin, GPIO_PIN_RESET);
  92              		.loc 1 361 3 view .LVU21
  93 0046 0B4D     		ldr	r5, .L3+4
  94 0048 2246     		mov	r2, r4
  95 004a 4FF40051 		mov	r1, #8192
  96 004e 2846     		mov	r0, r5
ARM GAS  C:\Users\Administrator.DESKTOP-24M4MSA\AppData\Local\Temp\ccbl61Tc.s 			page 9


  97 0050 FFF7FEFF 		bl	HAL_GPIO_WritePin
  98              	.LVL0:
 362:Src/main.c    **** 
 363:Src/main.c    ****   /*Configure GPIO pin : LED_Pin */
 364:Src/main.c    ****   GPIO_InitStruct.Pin = LED_Pin;
  99              		.loc 1 364 3 view .LVU22
 100              		.loc 1 364 23 is_stmt 0 view .LVU23
 101 0054 4FF40053 		mov	r3, #8192
 102 0058 0493     		str	r3, [sp, #16]
 365:Src/main.c    ****   GPIO_InitStruct.Mode = GPIO_MODE_OUTPUT_PP;
 103              		.loc 1 365 3 is_stmt 1 view .LVU24
 104              		.loc 1 365 24 is_stmt 0 view .LVU25
 105 005a 0123     		movs	r3, #1
 106 005c 0593     		str	r3, [sp, #20]
 366:Src/main.c    ****   GPIO_InitStruct.Pull = GPIO_NOPULL;
 107              		.loc 1 366 3 is_stmt 1 view .LVU26
 108              		.loc 1 366 24 is_stmt 0 view .LVU27
 109 005e 0694     		str	r4, [sp, #24]
 367:Src/main.c    ****   GPIO_InitStruct.Speed = GPIO_SPEED_FREQ_MEDIUM;
 110              		.loc 1 367 3 is_stmt 1 view .LVU28
 111              		.loc 1 367 25 is_stmt 0 view .LVU29
 112 0060 0793     		str	r3, [sp, #28]
 368:Src/main.c    ****   HAL_GPIO_Init(LED_GPIO_Port, &GPIO_InitStruct);
 113              		.loc 1 368 3 is_stmt 1 view .LVU30
 114 0062 04A9     		add	r1, sp, #16
 115 0064 2846     		mov	r0, r5
 116 0066 FFF7FEFF 		bl	HAL_GPIO_Init
 117              	.LVL1:
 369:Src/main.c    **** 
 370:Src/main.c    **** }
 118              		.loc 1 370 1 is_stmt 0 view .LVU31
 119 006a 09B0     		add	sp, sp, #36
 120              	.LCFI2:
 121              		.cfi_def_cfa_offset 12
 122              		@ sp needed
 123 006c 30BD     		pop	{r4, r5, pc}
 124              	.L4:
 125 006e 00BF     		.align	2
 126              	.L3:
 127 0070 00100240 		.word	1073876992
 128 0074 00100140 		.word	1073811456
 129              		.cfi_endproc
 130              	.LFE70:
 132              		.section	.text.CAN_Set_Motor_Voltage,"ax",%progbits
 133              		.align	1
 134              		.global	CAN_Set_Motor_Voltage
 135              		.syntax unified
 136              		.thumb
 137              		.thumb_func
 138              		.fpu softvfp
 140              	CAN_Set_Motor_Voltage:
 141              	.LVL2:
 142              	.LFB72:
 371:Src/main.c    **** 
 372:Src/main.c    **** /* USER CODE BEGIN 4 */
 373:Src/main.c    **** HAL_StatusTypeDef CAN_RxFifo1MsgPendingCallBack(CAN_HandleTypeDef *hcan){
 374:Src/main.c    ****   if (HAL_CAN_GetRxMessage(&hcan, CAN_RX_FIFO1, &rxHeader, (uint8_t *)canRX) != HAL_OK){
ARM GAS  C:\Users\Administrator.DESKTOP-24M4MSA\AppData\Local\Temp\ccbl61Tc.s 			page 10


 375:Src/main.c    ****     Error_Handler();
 376:Src/main.c    ****     canRxStatus = HAL_ERROR;
 377:Src/main.c    ****   }
 378:Src/main.c    ****   else{
 379:Src/main.c    ****     HAL_CAN_ActivateNotification(&hcan, CAN_IT_RX_FIFO1_MSG_PENDING);
 380:Src/main.c    ****     canRxStatus = HAL_OK;
 381:Src/main.c    ****     for(int i=0;i<6;i++){
 382:Src/main.c    ****     HAL_GPIO_TogglePin(GPIOC, GPIO_PIN_13);
 383:Src/main.c    ****     HAL_Delay(200);
 384:Src/main.c    ****   }
 385:Src/main.c    ****   }
 386:Src/main.c    **** }
 387:Src/main.c    **** void CAN_Set_Motor_Voltage(uint16_t v1, uint16_t v2, uint16_t v3, uint16_t v4, uint8_t target_buffe
 143              		.loc 1 387 104 is_stmt 1 view -0
 144              		.cfi_startproc
 145              		@ args = 4, pretend = 0, frame = 0
 146              		@ frame_needed = 0, uses_anonymous_args = 0
 147              		@ link register save eliminated.
 148              		.loc 1 387 104 is_stmt 0 view .LVU33
 149 0000 10B4     		push	{r4}
 150              	.LCFI3:
 151              		.cfi_def_cfa_offset 4
 152              		.cfi_offset 4, -4
 153 0002 019C     		ldr	r4, [sp, #4]
 388:Src/main.c    ****   target_buffer[0] = v1 >> 8;
 154              		.loc 1 388 3 is_stmt 1 view .LVU34
 155              		.loc 1 388 20 is_stmt 0 view .LVU35
 156 0004 4FEA102C 		lsr	ip, r0, #8
 157 0008 84F800C0 		strb	ip, [r4]
 389:Src/main.c    ****   target_buffer[1] = v1;
 158              		.loc 1 389 3 is_stmt 1 view .LVU36
 159              		.loc 1 389 20 is_stmt 0 view .LVU37
 160 000c 6070     		strb	r0, [r4, #1]
 390:Src/main.c    ****   target_buffer[2] = v2 >> 8;
 161              		.loc 1 390 3 is_stmt 1 view .LVU38
 162              		.loc 1 390 20 is_stmt 0 view .LVU39
 163 000e 080A     		lsrs	r0, r1, #8
 164              	.LVL3:
 165              		.loc 1 390 20 view .LVU40
 166 0010 A070     		strb	r0, [r4, #2]
 391:Src/main.c    ****   target_buffer[3] = v2;
 167              		.loc 1 391 3 is_stmt 1 view .LVU41
 168              		.loc 1 391 20 is_stmt 0 view .LVU42
 169 0012 E170     		strb	r1, [r4, #3]
 392:Src/main.c    ****   target_buffer[4] = v3 >> 8;
 170              		.loc 1 392 3 is_stmt 1 view .LVU43
 171              		.loc 1 392 20 is_stmt 0 view .LVU44
 172 0014 110A     		lsrs	r1, r2, #8
 173              	.LVL4:
 174              		.loc 1 392 20 view .LVU45
 175 0016 2171     		strb	r1, [r4, #4]
 393:Src/main.c    ****   target_buffer[5] = v3;
 176              		.loc 1 393 3 is_stmt 1 view .LVU46
 177              		.loc 1 393 20 is_stmt 0 view .LVU47
 178 0018 6271     		strb	r2, [r4, #5]
 394:Src/main.c    ****   target_buffer[6] = v4 >> 8;
 179              		.loc 1 394 3 is_stmt 1 view .LVU48
ARM GAS  C:\Users\Administrator.DESKTOP-24M4MSA\AppData\Local\Temp\ccbl61Tc.s 			page 11


 180              		.loc 1 394 20 is_stmt 0 view .LVU49
 181 001a 1A0A     		lsrs	r2, r3, #8
 182              	.LVL5:
 183              		.loc 1 394 20 view .LVU50
 184 001c A271     		strb	r2, [r4, #6]
 395:Src/main.c    ****   target_buffer[7] = v4;
 185              		.loc 1 395 3 is_stmt 1 view .LVU51
 186              		.loc 1 395 20 is_stmt 0 view .LVU52
 187 001e E371     		strb	r3, [r4, #7]
 396:Src/main.c    ****   return;
 188              		.loc 1 396 3 is_stmt 1 view .LVU53
 397:Src/main.c    **** }
 189              		.loc 1 397 1 is_stmt 0 view .LVU54
 190 0020 10BC     		pop	{r4}
 191              	.LCFI4:
 192              		.cfi_restore 4
 193              		.cfi_def_cfa_offset 0
 194              	.LVL6:
 195              		.loc 1 397 1 view .LVU55
 196 0022 7047     		bx	lr
 197              		.cfi_endproc
 198              	.LFE72:
 200              		.section	.text.Error_Handler,"ax",%progbits
 201              		.align	1
 202              		.global	Error_Handler
 203              		.syntax unified
 204              		.thumb
 205              		.thumb_func
 206              		.fpu softvfp
 208              	Error_Handler:
 209              	.LFB73:
 398:Src/main.c    **** /* USER CODE END 4 */
 399:Src/main.c    **** 
 400:Src/main.c    **** /**
 401:Src/main.c    ****   * @brief  This function is executed in case of error occurrence.
 402:Src/main.c    ****   * @retval None
 403:Src/main.c    ****   */
 404:Src/main.c    **** void Error_Handler(void)
 405:Src/main.c    **** {
 210              		.loc 1 405 1 is_stmt 1 view -0
 211              		.cfi_startproc
 212              		@ args = 0, pretend = 0, frame = 0
 213              		@ frame_needed = 0, uses_anonymous_args = 0
 214 0000 10B5     		push	{r4, lr}
 215              	.LCFI5:
 216              		.cfi_def_cfa_offset 8
 217              		.cfi_offset 4, -8
 218              		.cfi_offset 14, -4
 406:Src/main.c    ****   /* USER CODE BEGIN Error_Handler_Debug */
 407:Src/main.c    ****   /* User can add his own implementation to report the HAL error return state */
 408:Src/main.c    ****   for(int i=0;i<4;i++){
 219              		.loc 1 408 3 view .LVU57
 220              	.LBB5:
 221              		.loc 1 408 7 view .LVU58
 222              	.LVL7:
 223              		.loc 1 408 11 is_stmt 0 view .LVU59
 224 0002 0024     		movs	r4, #0
ARM GAS  C:\Users\Administrator.DESKTOP-24M4MSA\AppData\Local\Temp\ccbl61Tc.s 			page 12


 225              		.loc 1 408 3 view .LVU60
 226 0004 09E0     		b	.L8
 227              	.LVL8:
 228              	.L9:
 409:Src/main.c    ****     HAL_GPIO_TogglePin(GPIOC, GPIO_PIN_13);
 229              		.loc 1 409 5 is_stmt 1 discriminator 3 view .LVU61
 230 0006 4FF40051 		mov	r1, #8192
 231 000a 0548     		ldr	r0, .L11
 232 000c FFF7FEFF 		bl	HAL_GPIO_TogglePin
 233              	.LVL9:
 410:Src/main.c    ****     HAL_Delay(500);
 234              		.loc 1 410 5 discriminator 3 view .LVU62
 235 0010 4FF4FA70 		mov	r0, #500
 236 0014 FFF7FEFF 		bl	HAL_Delay
 237              	.LVL10:
 408:Src/main.c    ****     HAL_GPIO_TogglePin(GPIOC, GPIO_PIN_13);
 238              		.loc 1 408 19 discriminator 3 view .LVU63
 408:Src/main.c    ****     HAL_GPIO_TogglePin(GPIOC, GPIO_PIN_13);
 239              		.loc 1 408 20 is_stmt 0 discriminator 3 view .LVU64
 240 0018 0134     		adds	r4, r4, #1
 241              	.LVL11:
 242              	.L8:
 408:Src/main.c    ****     HAL_GPIO_TogglePin(GPIOC, GPIO_PIN_13);
 243              		.loc 1 408 15 is_stmt 1 discriminator 1 view .LVU65
 408:Src/main.c    ****     HAL_GPIO_TogglePin(GPIOC, GPIO_PIN_13);
 244              		.loc 1 408 3 is_stmt 0 discriminator 1 view .LVU66
 245 001a 032C     		cmp	r4, #3
 246 001c F3DD     		ble	.L9
 247              	.LBE5:
 411:Src/main.c    ****   }
 412:Src/main.c    ****   /* USER CODE END Error_Handler_Debug */
 413:Src/main.c    **** }
 248              		.loc 1 413 1 view .LVU67
 249 001e 10BD     		pop	{r4, pc}
 250              	.LVL12:
 251              	.L12:
 252              		.loc 1 413 1 view .LVU68
 253              		.align	2
 254              	.L11:
 255 0020 00100140 		.word	1073811456
 256              		.cfi_endproc
 257              	.LFE73:
 259              		.section	.text.MX_TIM1_Init,"ax",%progbits
 260              		.align	1
 261              		.syntax unified
 262              		.thumb
 263              		.thumb_func
 264              		.fpu softvfp
 266              	MX_TIM1_Init:
 267              	.LFB68:
 244:Src/main.c    **** 
 268              		.loc 1 244 1 is_stmt 1 view -0
 269              		.cfi_startproc
 270              		@ args = 0, pretend = 0, frame = 88
 271              		@ frame_needed = 0, uses_anonymous_args = 0
 272 0000 10B5     		push	{r4, lr}
 273              	.LCFI6:
ARM GAS  C:\Users\Administrator.DESKTOP-24M4MSA\AppData\Local\Temp\ccbl61Tc.s 			page 13


 274              		.cfi_def_cfa_offset 8
 275              		.cfi_offset 4, -8
 276              		.cfi_offset 14, -4
 277 0002 96B0     		sub	sp, sp, #88
 278              	.LCFI7:
 279              		.cfi_def_cfa_offset 96
 250:Src/main.c    ****   TIM_MasterConfigTypeDef sMasterConfig = {0};
 280              		.loc 1 250 3 view .LVU70
 250:Src/main.c    ****   TIM_MasterConfigTypeDef sMasterConfig = {0};
 281              		.loc 1 250 26 is_stmt 0 view .LVU71
 282 0004 0024     		movs	r4, #0
 283 0006 1294     		str	r4, [sp, #72]
 284 0008 1394     		str	r4, [sp, #76]
 285 000a 1494     		str	r4, [sp, #80]
 286 000c 1594     		str	r4, [sp, #84]
 251:Src/main.c    ****   TIM_OC_InitTypeDef sConfigOC = {0};
 287              		.loc 1 251 3 is_stmt 1 view .LVU72
 251:Src/main.c    ****   TIM_OC_InitTypeDef sConfigOC = {0};
 288              		.loc 1 251 27 is_stmt 0 view .LVU73
 289 000e 1094     		str	r4, [sp, #64]
 290 0010 1194     		str	r4, [sp, #68]
 252:Src/main.c    ****   TIM_BreakDeadTimeConfigTypeDef sBreakDeadTimeConfig = {0};
 291              		.loc 1 252 3 is_stmt 1 view .LVU74
 252:Src/main.c    ****   TIM_BreakDeadTimeConfigTypeDef sBreakDeadTimeConfig = {0};
 292              		.loc 1 252 22 is_stmt 0 view .LVU75
 293 0012 0994     		str	r4, [sp, #36]
 294 0014 0A94     		str	r4, [sp, #40]
 295 0016 0B94     		str	r4, [sp, #44]
 296 0018 0C94     		str	r4, [sp, #48]
 297 001a 0D94     		str	r4, [sp, #52]
 298 001c 0E94     		str	r4, [sp, #56]
 299 001e 0F94     		str	r4, [sp, #60]
 253:Src/main.c    **** 
 300              		.loc 1 253 3 is_stmt 1 view .LVU76
 253:Src/main.c    **** 
 301              		.loc 1 253 34 is_stmt 0 view .LVU77
 302 0020 2022     		movs	r2, #32
 303 0022 2146     		mov	r1, r4
 304 0024 01A8     		add	r0, sp, #4
 305 0026 FFF7FEFF 		bl	memset
 306              	.LVL13:
 258:Src/main.c    ****   htim1.Init.Prescaler = 0;
 307              		.loc 1 258 3 is_stmt 1 view .LVU78
 258:Src/main.c    ****   htim1.Init.Prescaler = 0;
 308              		.loc 1 258 18 is_stmt 0 view .LVU79
 309 002a 2B48     		ldr	r0, .L27
 310 002c 2B4B     		ldr	r3, .L27+4
 311 002e 0360     		str	r3, [r0]
 259:Src/main.c    ****   htim1.Init.CounterMode = TIM_COUNTERMODE_UP;
 312              		.loc 1 259 3 is_stmt 1 view .LVU80
 259:Src/main.c    ****   htim1.Init.CounterMode = TIM_COUNTERMODE_UP;
 313              		.loc 1 259 24 is_stmt 0 view .LVU81
 314 0030 4460     		str	r4, [r0, #4]
 260:Src/main.c    ****   htim1.Init.Period = 0;
 315              		.loc 1 260 3 is_stmt 1 view .LVU82
 260:Src/main.c    ****   htim1.Init.Period = 0;
 316              		.loc 1 260 26 is_stmt 0 view .LVU83
ARM GAS  C:\Users\Administrator.DESKTOP-24M4MSA\AppData\Local\Temp\ccbl61Tc.s 			page 14


 317 0032 8460     		str	r4, [r0, #8]
 261:Src/main.c    ****   htim1.Init.ClockDivision = TIM_CLOCKDIVISION_DIV1;
 318              		.loc 1 261 3 is_stmt 1 view .LVU84
 261:Src/main.c    ****   htim1.Init.ClockDivision = TIM_CLOCKDIVISION_DIV1;
 319              		.loc 1 261 21 is_stmt 0 view .LVU85
 320 0034 C460     		str	r4, [r0, #12]
 262:Src/main.c    ****   htim1.Init.RepetitionCounter = 0;
 321              		.loc 1 262 3 is_stmt 1 view .LVU86
 262:Src/main.c    ****   htim1.Init.RepetitionCounter = 0;
 322              		.loc 1 262 28 is_stmt 0 view .LVU87
 323 0036 0461     		str	r4, [r0, #16]
 263:Src/main.c    ****   htim1.Init.AutoReloadPreload = TIM_AUTORELOAD_PRELOAD_DISABLE;
 324              		.loc 1 263 3 is_stmt 1 view .LVU88
 263:Src/main.c    ****   htim1.Init.AutoReloadPreload = TIM_AUTORELOAD_PRELOAD_DISABLE;
 325              		.loc 1 263 32 is_stmt 0 view .LVU89
 326 0038 4461     		str	r4, [r0, #20]
 264:Src/main.c    ****   if (HAL_TIM_Base_Init(&htim1) != HAL_OK)
 327              		.loc 1 264 3 is_stmt 1 view .LVU90
 264:Src/main.c    ****   if (HAL_TIM_Base_Init(&htim1) != HAL_OK)
 328              		.loc 1 264 32 is_stmt 0 view .LVU91
 329 003a 8461     		str	r4, [r0, #24]
 265:Src/main.c    ****   {
 330              		.loc 1 265 3 is_stmt 1 view .LVU92
 265:Src/main.c    ****   {
 331              		.loc 1 265 7 is_stmt 0 view .LVU93
 332 003c FFF7FEFF 		bl	HAL_TIM_Base_Init
 333              	.LVL14:
 265:Src/main.c    ****   {
 334              		.loc 1 265 6 view .LVU94
 335 0040 0028     		cmp	r0, #0
 336 0042 36D1     		bne	.L21
 337              	.L14:
 269:Src/main.c    ****   if (HAL_TIM_ConfigClockSource(&htim1, &sClockSourceConfig) != HAL_OK)
 338              		.loc 1 269 3 is_stmt 1 view .LVU95
 269:Src/main.c    ****   if (HAL_TIM_ConfigClockSource(&htim1, &sClockSourceConfig) != HAL_OK)
 339              		.loc 1 269 34 is_stmt 0 view .LVU96
 340 0044 4FF48053 		mov	r3, #4096
 341 0048 1293     		str	r3, [sp, #72]
 270:Src/main.c    ****   {
 342              		.loc 1 270 3 is_stmt 1 view .LVU97
 270:Src/main.c    ****   {
 343              		.loc 1 270 7 is_stmt 0 view .LVU98
 344 004a 12A9     		add	r1, sp, #72
 345 004c 2248     		ldr	r0, .L27
 346 004e FFF7FEFF 		bl	HAL_TIM_ConfigClockSource
 347              	.LVL15:
 270:Src/main.c    ****   {
 348              		.loc 1 270 6 view .LVU99
 349 0052 0028     		cmp	r0, #0
 350 0054 30D1     		bne	.L22
 351              	.L15:
 274:Src/main.c    ****   {
 352              		.loc 1 274 3 is_stmt 1 view .LVU100
 274:Src/main.c    ****   {
 353              		.loc 1 274 7 is_stmt 0 view .LVU101
 354 0056 2048     		ldr	r0, .L27
 355 0058 FFF7FEFF 		bl	HAL_TIM_OC_Init
ARM GAS  C:\Users\Administrator.DESKTOP-24M4MSA\AppData\Local\Temp\ccbl61Tc.s 			page 15


 356              	.LVL16:
 274:Src/main.c    ****   {
 357              		.loc 1 274 6 view .LVU102
 358 005c 0028     		cmp	r0, #0
 359 005e 2ED1     		bne	.L23
 360              	.L16:
 278:Src/main.c    ****   sMasterConfig.MasterSlaveMode = TIM_MASTERSLAVEMODE_DISABLE;
 361              		.loc 1 278 3 is_stmt 1 view .LVU103
 278:Src/main.c    ****   sMasterConfig.MasterSlaveMode = TIM_MASTERSLAVEMODE_DISABLE;
 362              		.loc 1 278 37 is_stmt 0 view .LVU104
 363 0060 0023     		movs	r3, #0
 364 0062 1093     		str	r3, [sp, #64]
 279:Src/main.c    ****   if (HAL_TIMEx_MasterConfigSynchronization(&htim1, &sMasterConfig) != HAL_OK)
 365              		.loc 1 279 3 is_stmt 1 view .LVU105
 279:Src/main.c    ****   if (HAL_TIMEx_MasterConfigSynchronization(&htim1, &sMasterConfig) != HAL_OK)
 366              		.loc 1 279 33 is_stmt 0 view .LVU106
 367 0064 1193     		str	r3, [sp, #68]
 280:Src/main.c    ****   {
 368              		.loc 1 280 3 is_stmt 1 view .LVU107
 280:Src/main.c    ****   {
 369              		.loc 1 280 7 is_stmt 0 view .LVU108
 370 0066 10A9     		add	r1, sp, #64
 371 0068 1B48     		ldr	r0, .L27
 372 006a FFF7FEFF 		bl	HAL_TIMEx_MasterConfigSynchronization
 373              	.LVL17:
 280:Src/main.c    ****   {
 374              		.loc 1 280 6 view .LVU109
 375 006e 48BB     		cbnz	r0, .L24
 376              	.L17:
 284:Src/main.c    ****   sConfigOC.Pulse = 0;
 377              		.loc 1 284 3 is_stmt 1 view .LVU110
 284:Src/main.c    ****   sConfigOC.Pulse = 0;
 378              		.loc 1 284 20 is_stmt 0 view .LVU111
 379 0070 0022     		movs	r2, #0
 380 0072 0992     		str	r2, [sp, #36]
 285:Src/main.c    ****   sConfigOC.OCPolarity = TIM_OCPOLARITY_HIGH;
 381              		.loc 1 285 3 is_stmt 1 view .LVU112
 285:Src/main.c    ****   sConfigOC.OCPolarity = TIM_OCPOLARITY_HIGH;
 382              		.loc 1 285 19 is_stmt 0 view .LVU113
 383 0074 0A92     		str	r2, [sp, #40]
 286:Src/main.c    ****   sConfigOC.OCNPolarity = TIM_OCNPOLARITY_HIGH;
 384              		.loc 1 286 3 is_stmt 1 view .LVU114
 286:Src/main.c    ****   sConfigOC.OCNPolarity = TIM_OCNPOLARITY_HIGH;
 385              		.loc 1 286 24 is_stmt 0 view .LVU115
 386 0076 0B92     		str	r2, [sp, #44]
 287:Src/main.c    ****   sConfigOC.OCFastMode = TIM_OCFAST_DISABLE;
 387              		.loc 1 287 3 is_stmt 1 view .LVU116
 287:Src/main.c    ****   sConfigOC.OCFastMode = TIM_OCFAST_DISABLE;
 388              		.loc 1 287 25 is_stmt 0 view .LVU117
 389 0078 0C92     		str	r2, [sp, #48]
 288:Src/main.c    ****   sConfigOC.OCIdleState = TIM_OCIDLESTATE_RESET;
 390              		.loc 1 288 3 is_stmt 1 view .LVU118
 288:Src/main.c    ****   sConfigOC.OCIdleState = TIM_OCIDLESTATE_RESET;
 391              		.loc 1 288 24 is_stmt 0 view .LVU119
 392 007a 0D92     		str	r2, [sp, #52]
 289:Src/main.c    ****   sConfigOC.OCNIdleState = TIM_OCNIDLESTATE_RESET;
 393              		.loc 1 289 3 is_stmt 1 view .LVU120
ARM GAS  C:\Users\Administrator.DESKTOP-24M4MSA\AppData\Local\Temp\ccbl61Tc.s 			page 16


 289:Src/main.c    ****   sConfigOC.OCNIdleState = TIM_OCNIDLESTATE_RESET;
 394              		.loc 1 289 25 is_stmt 0 view .LVU121
 395 007c 0E92     		str	r2, [sp, #56]
 290:Src/main.c    ****   if (HAL_TIM_OC_ConfigChannel(&htim1, &sConfigOC, TIM_CHANNEL_1) != HAL_OK)
 396              		.loc 1 290 3 is_stmt 1 view .LVU122
 290:Src/main.c    ****   if (HAL_TIM_OC_ConfigChannel(&htim1, &sConfigOC, TIM_CHANNEL_1) != HAL_OK)
 397              		.loc 1 290 26 is_stmt 0 view .LVU123
 398 007e 0F92     		str	r2, [sp, #60]
 291:Src/main.c    ****   {
 399              		.loc 1 291 3 is_stmt 1 view .LVU124
 291:Src/main.c    ****   {
 400              		.loc 1 291 7 is_stmt 0 view .LVU125
 401 0080 09A9     		add	r1, sp, #36
 402 0082 1548     		ldr	r0, .L27
 403 0084 FFF7FEFF 		bl	HAL_TIM_OC_ConfigChannel
 404              	.LVL18:
 291:Src/main.c    ****   {
 405              		.loc 1 291 6 view .LVU126
 406 0088 F8B9     		cbnz	r0, .L25
 407              	.L18:
 295:Src/main.c    ****   sBreakDeadTimeConfig.OffStateIDLEMode = TIM_OSSI_DISABLE;
 408              		.loc 1 295 3 is_stmt 1 view .LVU127
 295:Src/main.c    ****   sBreakDeadTimeConfig.OffStateIDLEMode = TIM_OSSI_DISABLE;
 409              		.loc 1 295 40 is_stmt 0 view .LVU128
 410 008a 0023     		movs	r3, #0
 411 008c 0193     		str	r3, [sp, #4]
 296:Src/main.c    ****   sBreakDeadTimeConfig.LockLevel = TIM_LOCKLEVEL_OFF;
 412              		.loc 1 296 3 is_stmt 1 view .LVU129
 296:Src/main.c    ****   sBreakDeadTimeConfig.LockLevel = TIM_LOCKLEVEL_OFF;
 413              		.loc 1 296 41 is_stmt 0 view .LVU130
 414 008e 0293     		str	r3, [sp, #8]
 297:Src/main.c    ****   sBreakDeadTimeConfig.DeadTime = 0;
 415              		.loc 1 297 3 is_stmt 1 view .LVU131
 297:Src/main.c    ****   sBreakDeadTimeConfig.DeadTime = 0;
 416              		.loc 1 297 34 is_stmt 0 view .LVU132
 417 0090 0393     		str	r3, [sp, #12]
 298:Src/main.c    ****   sBreakDeadTimeConfig.BreakState = TIM_BREAK_DISABLE;
 418              		.loc 1 298 3 is_stmt 1 view .LVU133
 298:Src/main.c    ****   sBreakDeadTimeConfig.BreakState = TIM_BREAK_DISABLE;
 419              		.loc 1 298 33 is_stmt 0 view .LVU134
 420 0092 0493     		str	r3, [sp, #16]
 299:Src/main.c    ****   sBreakDeadTimeConfig.BreakPolarity = TIM_BREAKPOLARITY_HIGH;
 421              		.loc 1 299 3 is_stmt 1 view .LVU135
 299:Src/main.c    ****   sBreakDeadTimeConfig.BreakPolarity = TIM_BREAKPOLARITY_HIGH;
 422              		.loc 1 299 35 is_stmt 0 view .LVU136
 423 0094 0593     		str	r3, [sp, #20]
 300:Src/main.c    ****   sBreakDeadTimeConfig.AutomaticOutput = TIM_AUTOMATICOUTPUT_DISABLE;
 424              		.loc 1 300 3 is_stmt 1 view .LVU137
 300:Src/main.c    ****   sBreakDeadTimeConfig.AutomaticOutput = TIM_AUTOMATICOUTPUT_DISABLE;
 425              		.loc 1 300 38 is_stmt 0 view .LVU138
 426 0096 4FF40052 		mov	r2, #8192
 427 009a 0692     		str	r2, [sp, #24]
 301:Src/main.c    ****   if (HAL_TIMEx_ConfigBreakDeadTime(&htim1, &sBreakDeadTimeConfig) != HAL_OK)
 428              		.loc 1 301 3 is_stmt 1 view .LVU139
 301:Src/main.c    ****   if (HAL_TIMEx_ConfigBreakDeadTime(&htim1, &sBreakDeadTimeConfig) != HAL_OK)
 429              		.loc 1 301 40 is_stmt 0 view .LVU140
 430 009c 0893     		str	r3, [sp, #32]
ARM GAS  C:\Users\Administrator.DESKTOP-24M4MSA\AppData\Local\Temp\ccbl61Tc.s 			page 17


 302:Src/main.c    ****   {
 431              		.loc 1 302 3 is_stmt 1 view .LVU141
 302:Src/main.c    ****   {
 432              		.loc 1 302 7 is_stmt 0 view .LVU142
 433 009e 01A9     		add	r1, sp, #4
 434 00a0 0D48     		ldr	r0, .L27
 435 00a2 FFF7FEFF 		bl	HAL_TIMEx_ConfigBreakDeadTime
 436              	.LVL19:
 302:Src/main.c    ****   {
 437              		.loc 1 302 6 view .LVU143
 438 00a6 98B9     		cbnz	r0, .L26
 439              	.L19:
 309:Src/main.c    **** 
 440              		.loc 1 309 3 is_stmt 1 view .LVU144
 441 00a8 0B48     		ldr	r0, .L27
 442 00aa FFF7FEFF 		bl	HAL_TIM_MspPostInit
 443              	.LVL20:
 311:Src/main.c    **** 
 444              		.loc 1 311 1 is_stmt 0 view .LVU145
 445 00ae 16B0     		add	sp, sp, #88
 446              	.LCFI8:
 447              		.cfi_remember_state
 448              		.cfi_def_cfa_offset 8
 449              		@ sp needed
 450 00b0 10BD     		pop	{r4, pc}
 451              	.L21:
 452              	.LCFI9:
 453              		.cfi_restore_state
 267:Src/main.c    ****   }
 454              		.loc 1 267 5 is_stmt 1 view .LVU146
 455 00b2 FFF7FEFF 		bl	Error_Handler
 456              	.LVL21:
 457 00b6 C5E7     		b	.L14
 458              	.L22:
 272:Src/main.c    ****   }
 459              		.loc 1 272 5 view .LVU147
 460 00b8 FFF7FEFF 		bl	Error_Handler
 461              	.LVL22:
 462 00bc CBE7     		b	.L15
 463              	.L23:
 276:Src/main.c    ****   }
 464              		.loc 1 276 5 view .LVU148
 465 00be FFF7FEFF 		bl	Error_Handler
 466              	.LVL23:
 467 00c2 CDE7     		b	.L16
 468              	.L24:
 282:Src/main.c    ****   }
 469              		.loc 1 282 5 view .LVU149
 470 00c4 FFF7FEFF 		bl	Error_Handler
 471              	.LVL24:
 472 00c8 D2E7     		b	.L17
 473              	.L25:
 293:Src/main.c    ****   }
 474              		.loc 1 293 5 view .LVU150
 475 00ca FFF7FEFF 		bl	Error_Handler
 476              	.LVL25:
 477 00ce DCE7     		b	.L18
ARM GAS  C:\Users\Administrator.DESKTOP-24M4MSA\AppData\Local\Temp\ccbl61Tc.s 			page 18


 478              	.L26:
 304:Src/main.c    ****   }
 479              		.loc 1 304 5 view .LVU151
 480 00d0 FFF7FEFF 		bl	Error_Handler
 481              	.LVL26:
 482 00d4 E8E7     		b	.L19
 483              	.L28:
 484 00d6 00BF     		.align	2
 485              	.L27:
 486 00d8 00000000 		.word	.LANCHOR0
 487 00dc 002C0140 		.word	1073818624
 488              		.cfi_endproc
 489              	.LFE68:
 491              		.section	.text.MX_USART2_UART_Init,"ax",%progbits
 492              		.align	1
 493              		.syntax unified
 494              		.thumb
 495              		.thumb_func
 496              		.fpu softvfp
 498              	MX_USART2_UART_Init:
 499              	.LFB69:
 319:Src/main.c    **** 
 500              		.loc 1 319 1 view -0
 501              		.cfi_startproc
 502              		@ args = 0, pretend = 0, frame = 0
 503              		@ frame_needed = 0, uses_anonymous_args = 0
 504 0000 08B5     		push	{r3, lr}
 505              	.LCFI10:
 506              		.cfi_def_cfa_offset 8
 507              		.cfi_offset 3, -8
 508              		.cfi_offset 14, -4
 328:Src/main.c    ****   huart2.Init.BaudRate = 9600;
 509              		.loc 1 328 3 view .LVU153
 328:Src/main.c    ****   huart2.Init.BaudRate = 9600;
 510              		.loc 1 328 19 is_stmt 0 view .LVU154
 511 0002 0A48     		ldr	r0, .L33
 512 0004 0A4B     		ldr	r3, .L33+4
 513 0006 0360     		str	r3, [r0]
 329:Src/main.c    ****   huart2.Init.WordLength = UART_WORDLENGTH_8B;
 514              		.loc 1 329 3 is_stmt 1 view .LVU155
 329:Src/main.c    ****   huart2.Init.WordLength = UART_WORDLENGTH_8B;
 515              		.loc 1 329 24 is_stmt 0 view .LVU156
 516 0008 4FF41653 		mov	r3, #9600
 517 000c 4360     		str	r3, [r0, #4]
 330:Src/main.c    ****   huart2.Init.StopBits = UART_STOPBITS_1;
 518              		.loc 1 330 3 is_stmt 1 view .LVU157
 330:Src/main.c    ****   huart2.Init.StopBits = UART_STOPBITS_1;
 519              		.loc 1 330 26 is_stmt 0 view .LVU158
 520 000e 0023     		movs	r3, #0
 521 0010 8360     		str	r3, [r0, #8]
 331:Src/main.c    ****   huart2.Init.Parity = UART_PARITY_NONE;
 522              		.loc 1 331 3 is_stmt 1 view .LVU159
 331:Src/main.c    ****   huart2.Init.Parity = UART_PARITY_NONE;
 523              		.loc 1 331 24 is_stmt 0 view .LVU160
 524 0012 C360     		str	r3, [r0, #12]
 332:Src/main.c    ****   huart2.Init.Mode = UART_MODE_TX_RX;
 525              		.loc 1 332 3 is_stmt 1 view .LVU161
ARM GAS  C:\Users\Administrator.DESKTOP-24M4MSA\AppData\Local\Temp\ccbl61Tc.s 			page 19


 332:Src/main.c    ****   huart2.Init.Mode = UART_MODE_TX_RX;
 526              		.loc 1 332 22 is_stmt 0 view .LVU162
 527 0014 0361     		str	r3, [r0, #16]
 333:Src/main.c    ****   huart2.Init.HwFlowCtl = UART_HWCONTROL_NONE;
 528              		.loc 1 333 3 is_stmt 1 view .LVU163
 333:Src/main.c    ****   huart2.Init.HwFlowCtl = UART_HWCONTROL_NONE;
 529              		.loc 1 333 20 is_stmt 0 view .LVU164
 530 0016 0C22     		movs	r2, #12
 531 0018 4261     		str	r2, [r0, #20]
 334:Src/main.c    ****   huart2.Init.OverSampling = UART_OVERSAMPLING_16;
 532              		.loc 1 334 3 is_stmt 1 view .LVU165
 334:Src/main.c    ****   huart2.Init.OverSampling = UART_OVERSAMPLING_16;
 533              		.loc 1 334 25 is_stmt 0 view .LVU166
 534 001a 8361     		str	r3, [r0, #24]
 335:Src/main.c    ****   if (HAL_UART_Init(&huart2) != HAL_OK)
 535              		.loc 1 335 3 is_stmt 1 view .LVU167
 335:Src/main.c    ****   if (HAL_UART_Init(&huart2) != HAL_OK)
 536              		.loc 1 335 28 is_stmt 0 view .LVU168
 537 001c C361     		str	r3, [r0, #28]
 336:Src/main.c    ****   {
 538              		.loc 1 336 3 is_stmt 1 view .LVU169
 336:Src/main.c    ****   {
 539              		.loc 1 336 7 is_stmt 0 view .LVU170
 540 001e FFF7FEFF 		bl	HAL_UART_Init
 541              	.LVL27:
 336:Src/main.c    ****   {
 542              		.loc 1 336 6 view .LVU171
 543 0022 00B9     		cbnz	r0, .L32
 544              	.L29:
 344:Src/main.c    **** 
 545              		.loc 1 344 1 view .LVU172
 546 0024 08BD     		pop	{r3, pc}
 547              	.L32:
 338:Src/main.c    ****   }
 548              		.loc 1 338 5 is_stmt 1 view .LVU173
 549 0026 FFF7FEFF 		bl	Error_Handler
 550              	.LVL28:
 344:Src/main.c    **** 
 551              		.loc 1 344 1 is_stmt 0 view .LVU174
 552 002a FBE7     		b	.L29
 553              	.L34:
 554              		.align	2
 555              	.L33:
 556 002c 00000000 		.word	.LANCHOR1
 557 0030 00440040 		.word	1073759232
 558              		.cfi_endproc
 559              	.LFE69:
 561              		.section	.text.MX_CAN_Init,"ax",%progbits
 562              		.align	1
 563              		.syntax unified
 564              		.thumb
 565              		.thumb_func
 566              		.fpu softvfp
 568              	MX_CAN_Init:
 569              	.LFB67:
 207:Src/main.c    **** 
 570              		.loc 1 207 1 is_stmt 1 view -0
ARM GAS  C:\Users\Administrator.DESKTOP-24M4MSA\AppData\Local\Temp\ccbl61Tc.s 			page 20


 571              		.cfi_startproc
 572              		@ args = 0, pretend = 0, frame = 0
 573              		@ frame_needed = 0, uses_anonymous_args = 0
 574 0000 08B5     		push	{r3, lr}
 575              	.LCFI11:
 576              		.cfi_def_cfa_offset 8
 577              		.cfi_offset 3, -8
 578              		.cfi_offset 14, -4
 216:Src/main.c    ****   hcan.Init.Prescaler = 4;
 579              		.loc 1 216 3 view .LVU176
 216:Src/main.c    ****   hcan.Init.Prescaler = 4;
 580              		.loc 1 216 17 is_stmt 0 view .LVU177
 581 0002 0D48     		ldr	r0, .L39
 582 0004 0D4B     		ldr	r3, .L39+4
 583 0006 0360     		str	r3, [r0]
 217:Src/main.c    ****   hcan.Init.Mode = CAN_MODE_NORMAL;
 584              		.loc 1 217 3 is_stmt 1 view .LVU178
 217:Src/main.c    ****   hcan.Init.Mode = CAN_MODE_NORMAL;
 585              		.loc 1 217 23 is_stmt 0 view .LVU179
 586 0008 0423     		movs	r3, #4
 587 000a 4360     		str	r3, [r0, #4]
 218:Src/main.c    ****   hcan.Init.SyncJumpWidth = CAN_SJW_1TQ;
 588              		.loc 1 218 3 is_stmt 1 view .LVU180
 218:Src/main.c    ****   hcan.Init.SyncJumpWidth = CAN_SJW_1TQ;
 589              		.loc 1 218 18 is_stmt 0 view .LVU181
 590 000c 0023     		movs	r3, #0
 591 000e 8360     		str	r3, [r0, #8]
 219:Src/main.c    ****   hcan.Init.TimeSeg1 = CAN_BS1_6TQ;
 592              		.loc 1 219 3 is_stmt 1 view .LVU182
 219:Src/main.c    ****   hcan.Init.TimeSeg1 = CAN_BS1_6TQ;
 593              		.loc 1 219 27 is_stmt 0 view .LVU183
 594 0010 C360     		str	r3, [r0, #12]
 220:Src/main.c    ****   hcan.Init.TimeSeg2 = CAN_BS2_2TQ;
 595              		.loc 1 220 3 is_stmt 1 view .LVU184
 220:Src/main.c    ****   hcan.Init.TimeSeg2 = CAN_BS2_2TQ;
 596              		.loc 1 220 22 is_stmt 0 view .LVU185
 597 0012 4FF4A022 		mov	r2, #327680
 598 0016 0261     		str	r2, [r0, #16]
 221:Src/main.c    ****   hcan.Init.TimeTriggeredMode = DISABLE;
 599              		.loc 1 221 3 is_stmt 1 view .LVU186
 221:Src/main.c    ****   hcan.Init.TimeTriggeredMode = DISABLE;
 600              		.loc 1 221 22 is_stmt 0 view .LVU187
 601 0018 4FF48012 		mov	r2, #1048576
 602 001c 4261     		str	r2, [r0, #20]
 222:Src/main.c    ****   hcan.Init.AutoBusOff = DISABLE;
 603              		.loc 1 222 3 is_stmt 1 view .LVU188
 222:Src/main.c    ****   hcan.Init.AutoBusOff = DISABLE;
 604              		.loc 1 222 31 is_stmt 0 view .LVU189
 605 001e 0376     		strb	r3, [r0, #24]
 223:Src/main.c    ****   hcan.Init.AutoWakeUp = DISABLE;
 606              		.loc 1 223 3 is_stmt 1 view .LVU190
 223:Src/main.c    ****   hcan.Init.AutoWakeUp = DISABLE;
 607              		.loc 1 223 24 is_stmt 0 view .LVU191
 608 0020 4376     		strb	r3, [r0, #25]
 224:Src/main.c    ****   hcan.Init.AutoRetransmission = DISABLE;
 609              		.loc 1 224 3 is_stmt 1 view .LVU192
 224:Src/main.c    ****   hcan.Init.AutoRetransmission = DISABLE;
ARM GAS  C:\Users\Administrator.DESKTOP-24M4MSA\AppData\Local\Temp\ccbl61Tc.s 			page 21


 610              		.loc 1 224 24 is_stmt 0 view .LVU193
 611 0022 8376     		strb	r3, [r0, #26]
 225:Src/main.c    ****   hcan.Init.ReceiveFifoLocked = DISABLE;
 612              		.loc 1 225 3 is_stmt 1 view .LVU194
 225:Src/main.c    ****   hcan.Init.ReceiveFifoLocked = DISABLE;
 613              		.loc 1 225 32 is_stmt 0 view .LVU195
 614 0024 C376     		strb	r3, [r0, #27]
 226:Src/main.c    ****   hcan.Init.TransmitFifoPriority = DISABLE;
 615              		.loc 1 226 3 is_stmt 1 view .LVU196
 226:Src/main.c    ****   hcan.Init.TransmitFifoPriority = DISABLE;
 616              		.loc 1 226 31 is_stmt 0 view .LVU197
 617 0026 0377     		strb	r3, [r0, #28]
 227:Src/main.c    ****   if (HAL_CAN_Init(&hcan) != HAL_OK)
 618              		.loc 1 227 3 is_stmt 1 view .LVU198
 227:Src/main.c    ****   if (HAL_CAN_Init(&hcan) != HAL_OK)
 619              		.loc 1 227 34 is_stmt 0 view .LVU199
 620 0028 4377     		strb	r3, [r0, #29]
 228:Src/main.c    ****   {
 621              		.loc 1 228 3 is_stmt 1 view .LVU200
 228:Src/main.c    ****   {
 622              		.loc 1 228 7 is_stmt 0 view .LVU201
 623 002a FFF7FEFF 		bl	HAL_CAN_Init
 624              	.LVL29:
 228:Src/main.c    ****   {
 625              		.loc 1 228 6 view .LVU202
 626 002e 00B9     		cbnz	r0, .L38
 627              	.L35:
 236:Src/main.c    **** 
 628              		.loc 1 236 1 view .LVU203
 629 0030 08BD     		pop	{r3, pc}
 630              	.L38:
 230:Src/main.c    ****   }
 631              		.loc 1 230 5 is_stmt 1 view .LVU204
 632 0032 FFF7FEFF 		bl	Error_Handler
 633              	.LVL30:
 236:Src/main.c    **** 
 634              		.loc 1 236 1 is_stmt 0 view .LVU205
 635 0036 FBE7     		b	.L35
 636              	.L40:
 637              		.align	2
 638              	.L39:
 639 0038 00000000 		.word	.LANCHOR2
 640 003c 00640040 		.word	1073767424
 641              		.cfi_endproc
 642              	.LFE67:
 644              		.section	.text.SystemClock_Config,"ax",%progbits
 645              		.align	1
 646              		.global	SystemClock_Config
 647              		.syntax unified
 648              		.thumb
 649              		.thumb_func
 650              		.fpu softvfp
 652              	SystemClock_Config:
 653              	.LFB66:
 169:Src/main.c    ****   RCC_OscInitTypeDef RCC_OscInitStruct = {0};
 654              		.loc 1 169 1 is_stmt 1 view -0
 655              		.cfi_startproc
ARM GAS  C:\Users\Administrator.DESKTOP-24M4MSA\AppData\Local\Temp\ccbl61Tc.s 			page 22


 656              		@ args = 0, pretend = 0, frame = 64
 657              		@ frame_needed = 0, uses_anonymous_args = 0
 658 0000 00B5     		push	{lr}
 659              	.LCFI12:
 660              		.cfi_def_cfa_offset 4
 661              		.cfi_offset 14, -4
 662 0002 91B0     		sub	sp, sp, #68
 663              	.LCFI13:
 664              		.cfi_def_cfa_offset 72
 170:Src/main.c    ****   RCC_ClkInitTypeDef RCC_ClkInitStruct = {0};
 665              		.loc 1 170 3 view .LVU207
 170:Src/main.c    ****   RCC_ClkInitTypeDef RCC_ClkInitStruct = {0};
 666              		.loc 1 170 22 is_stmt 0 view .LVU208
 667 0004 2822     		movs	r2, #40
 668 0006 0021     		movs	r1, #0
 669 0008 06A8     		add	r0, sp, #24
 670 000a FFF7FEFF 		bl	memset
 671              	.LVL31:
 171:Src/main.c    **** 
 672              		.loc 1 171 3 is_stmt 1 view .LVU209
 171:Src/main.c    **** 
 673              		.loc 1 171 22 is_stmt 0 view .LVU210
 674 000e 0023     		movs	r3, #0
 675 0010 0193     		str	r3, [sp, #4]
 676 0012 0293     		str	r3, [sp, #8]
 677 0014 0393     		str	r3, [sp, #12]
 678 0016 0493     		str	r3, [sp, #16]
 679 0018 0593     		str	r3, [sp, #20]
 175:Src/main.c    ****   RCC_OscInitStruct.HSEState = RCC_HSE_ON;
 680              		.loc 1 175 3 is_stmt 1 view .LVU211
 175:Src/main.c    ****   RCC_OscInitStruct.HSEState = RCC_HSE_ON;
 681              		.loc 1 175 36 is_stmt 0 view .LVU212
 682 001a 0122     		movs	r2, #1
 683 001c 0692     		str	r2, [sp, #24]
 176:Src/main.c    ****   RCC_OscInitStruct.HSEPredivValue = RCC_HSE_PREDIV_DIV1;
 684              		.loc 1 176 3 is_stmt 1 view .LVU213
 176:Src/main.c    ****   RCC_OscInitStruct.HSEPredivValue = RCC_HSE_PREDIV_DIV1;
 685              		.loc 1 176 30 is_stmt 0 view .LVU214
 686 001e 4FF48033 		mov	r3, #65536
 687 0022 0793     		str	r3, [sp, #28]
 177:Src/main.c    ****   RCC_OscInitStruct.HSIState = RCC_HSI_ON;
 688              		.loc 1 177 3 is_stmt 1 view .LVU215
 178:Src/main.c    ****   RCC_OscInitStruct.PLL.PLLState = RCC_PLL_ON;
 689              		.loc 1 178 3 view .LVU216
 178:Src/main.c    ****   RCC_OscInitStruct.PLL.PLLState = RCC_PLL_ON;
 690              		.loc 1 178 30 is_stmt 0 view .LVU217
 691 0024 0A92     		str	r2, [sp, #40]
 179:Src/main.c    ****   RCC_OscInitStruct.PLL.PLLSource = RCC_PLLSOURCE_HSE;
 692              		.loc 1 179 3 is_stmt 1 view .LVU218
 179:Src/main.c    ****   RCC_OscInitStruct.PLL.PLLSource = RCC_PLLSOURCE_HSE;
 693              		.loc 1 179 34 is_stmt 0 view .LVU219
 694 0026 0222     		movs	r2, #2
 695 0028 0D92     		str	r2, [sp, #52]
 180:Src/main.c    ****   RCC_OscInitStruct.PLL.PLLMUL = RCC_PLL_MUL9;
 696              		.loc 1 180 3 is_stmt 1 view .LVU220
 180:Src/main.c    ****   RCC_OscInitStruct.PLL.PLLMUL = RCC_PLL_MUL9;
 697              		.loc 1 180 35 is_stmt 0 view .LVU221
ARM GAS  C:\Users\Administrator.DESKTOP-24M4MSA\AppData\Local\Temp\ccbl61Tc.s 			page 23


 698 002a 0E93     		str	r3, [sp, #56]
 181:Src/main.c    ****   if (HAL_RCC_OscConfig(&RCC_OscInitStruct) != HAL_OK)
 699              		.loc 1 181 3 is_stmt 1 view .LVU222
 181:Src/main.c    ****   if (HAL_RCC_OscConfig(&RCC_OscInitStruct) != HAL_OK)
 700              		.loc 1 181 32 is_stmt 0 view .LVU223
 701 002c 4FF4E013 		mov	r3, #1835008
 702 0030 0F93     		str	r3, [sp, #60]
 182:Src/main.c    ****   {
 703              		.loc 1 182 3 is_stmt 1 view .LVU224
 182:Src/main.c    ****   {
 704              		.loc 1 182 7 is_stmt 0 view .LVU225
 705 0032 06A8     		add	r0, sp, #24
 706 0034 FFF7FEFF 		bl	HAL_RCC_OscConfig
 707              	.LVL32:
 182:Src/main.c    ****   {
 708              		.loc 1 182 6 view .LVU226
 709 0038 80B9     		cbnz	r0, .L45
 710              	.L42:
 188:Src/main.c    ****                               |RCC_CLOCKTYPE_PCLK1|RCC_CLOCKTYPE_PCLK2;
 711              		.loc 1 188 3 is_stmt 1 view .LVU227
 188:Src/main.c    ****                               |RCC_CLOCKTYPE_PCLK1|RCC_CLOCKTYPE_PCLK2;
 712              		.loc 1 188 31 is_stmt 0 view .LVU228
 713 003a 0F23     		movs	r3, #15
 714 003c 0193     		str	r3, [sp, #4]
 190:Src/main.c    ****   RCC_ClkInitStruct.AHBCLKDivider = RCC_SYSCLK_DIV1;
 715              		.loc 1 190 3 is_stmt 1 view .LVU229
 190:Src/main.c    ****   RCC_ClkInitStruct.AHBCLKDivider = RCC_SYSCLK_DIV1;
 716              		.loc 1 190 34 is_stmt 0 view .LVU230
 717 003e 0221     		movs	r1, #2
 718 0040 0291     		str	r1, [sp, #8]
 191:Src/main.c    ****   RCC_ClkInitStruct.APB1CLKDivider = RCC_HCLK_DIV2;
 719              		.loc 1 191 3 is_stmt 1 view .LVU231
 191:Src/main.c    ****   RCC_ClkInitStruct.APB1CLKDivider = RCC_HCLK_DIV2;
 720              		.loc 1 191 35 is_stmt 0 view .LVU232
 721 0042 0023     		movs	r3, #0
 722 0044 0393     		str	r3, [sp, #12]
 192:Src/main.c    ****   RCC_ClkInitStruct.APB2CLKDivider = RCC_HCLK_DIV1;
 723              		.loc 1 192 3 is_stmt 1 view .LVU233
 192:Src/main.c    ****   RCC_ClkInitStruct.APB2CLKDivider = RCC_HCLK_DIV1;
 724              		.loc 1 192 36 is_stmt 0 view .LVU234
 725 0046 4FF48062 		mov	r2, #1024
 726 004a 0492     		str	r2, [sp, #16]
 193:Src/main.c    **** 
 727              		.loc 1 193 3 is_stmt 1 view .LVU235
 193:Src/main.c    **** 
 728              		.loc 1 193 36 is_stmt 0 view .LVU236
 729 004c 0593     		str	r3, [sp, #20]
 195:Src/main.c    ****   {
 730              		.loc 1 195 3 is_stmt 1 view .LVU237
 195:Src/main.c    ****   {
 731              		.loc 1 195 7 is_stmt 0 view .LVU238
 732 004e 01A8     		add	r0, sp, #4
 733 0050 FFF7FEFF 		bl	HAL_RCC_ClockConfig
 734              	.LVL33:
 195:Src/main.c    ****   {
 735              		.loc 1 195 6 view .LVU239
 736 0054 28B9     		cbnz	r0, .L46
ARM GAS  C:\Users\Administrator.DESKTOP-24M4MSA\AppData\Local\Temp\ccbl61Tc.s 			page 24


 737              	.L41:
 199:Src/main.c    **** 
 738              		.loc 1 199 1 view .LVU240
 739 0056 11B0     		add	sp, sp, #68
 740              	.LCFI14:
 741              		.cfi_remember_state
 742              		.cfi_def_cfa_offset 4
 743              		@ sp needed
 744 0058 5DF804FB 		ldr	pc, [sp], #4
 745              	.L45:
 746              	.LCFI15:
 747              		.cfi_restore_state
 184:Src/main.c    ****   }
 748              		.loc 1 184 5 is_stmt 1 view .LVU241
 749 005c FFF7FEFF 		bl	Error_Handler
 750              	.LVL34:
 751 0060 EBE7     		b	.L42
 752              	.L46:
 197:Src/main.c    ****   }
 753              		.loc 1 197 5 view .LVU242
 754 0062 FFF7FEFF 		bl	Error_Handler
 755              	.LVL35:
 199:Src/main.c    **** 
 756              		.loc 1 199 1 is_stmt 0 view .LVU243
 757 0066 F6E7     		b	.L41
 758              		.cfi_endproc
 759              	.LFE66:
 761              		.global	__aeabi_i2f
 762              		.global	__aeabi_ui2f
 763              		.global	__aeabi_f2uiz
 764              		.section	.text.main,"ax",%progbits
 765              		.align	1
 766              		.global	main
 767              		.syntax unified
 768              		.thumb
 769              		.thumb_func
 770              		.fpu softvfp
 772              	main:
 773              	.LFB65:
  87:Src/main.c    ****   /* USER CODE BEGIN 1 */
 774              		.loc 1 87 1 is_stmt 1 view -0
 775              		.cfi_startproc
 776              		@ Volatile: function does not return.
 777              		@ args = 0, pretend = 0, frame = 72
 778              		@ frame_needed = 0, uses_anonymous_args = 0
 779 0000 80B5     		push	{r7, lr}
 780              	.LCFI16:
 781              		.cfi_def_cfa_offset 8
 782              		.cfi_offset 7, -8
 783              		.cfi_offset 14, -4
 784 0002 94B0     		sub	sp, sp, #80
 785              	.LCFI17:
 786              		.cfi_def_cfa_offset 88
  95:Src/main.c    **** 
 787              		.loc 1 95 3 view .LVU245
 788 0004 FFF7FEFF 		bl	HAL_Init
 789              	.LVL36:
ARM GAS  C:\Users\Administrator.DESKTOP-24M4MSA\AppData\Local\Temp\ccbl61Tc.s 			page 25


 102:Src/main.c    **** 
 790              		.loc 1 102 3 view .LVU246
 791 0008 FFF7FEFF 		bl	SystemClock_Config
 792              	.LVL37:
 109:Src/main.c    ****   MX_TIM1_Init();
 793              		.loc 1 109 3 view .LVU247
 794 000c FFF7FEFF 		bl	MX_GPIO_Init
 795              	.LVL38:
 110:Src/main.c    ****   MX_USART2_UART_Init();
 796              		.loc 1 110 3 view .LVU248
 797 0010 FFF7FEFF 		bl	MX_TIM1_Init
 798              	.LVL39:
 111:Src/main.c    ****   MX_CAN_Init();
 799              		.loc 1 111 3 view .LVU249
 800 0014 FFF7FEFF 		bl	MX_USART2_UART_Init
 801              	.LVL40:
 112:Src/main.c    ****   /* USER CODE BEGIN 2 */
 802              		.loc 1 112 3 view .LVU250
 803 0018 FFF7FEFF 		bl	MX_CAN_Init
 804              	.LVL41:
 114:Src/main.c    ****   static volatile uint16_t encoder = 0;
 805              		.loc 1 114 3 view .LVU251
 115:Src/main.c    ****   CAN_FilterTypeDef canfil; // CAN Bus Filter
 806              		.loc 1 115 3 view .LVU252
 116:Src/main.c    ****   uint32_t canMailbox;
 807              		.loc 1 116 3 view .LVU253
 117:Src/main.c    **** 
 808              		.loc 1 117 3 view .LVU254
 119:Src/main.c    ****   canfil.FilterMode = CAN_FILTERMODE_IDMASK;
 809              		.loc 1 119 3 view .LVU255
 119:Src/main.c    ****   canfil.FilterMode = CAN_FILTERMODE_IDMASK;
 810              		.loc 1 119 21 is_stmt 0 view .LVU256
 811 001c 0023     		movs	r3, #0
 812 001e 0993     		str	r3, [sp, #36]
 120:Src/main.c    ****   canfil.FilterFIFOAssignment = CAN_RX_FIFO1;
 813              		.loc 1 120 3 is_stmt 1 view .LVU257
 120:Src/main.c    ****   canfil.FilterFIFOAssignment = CAN_RX_FIFO1;
 814              		.loc 1 120 21 is_stmt 0 view .LVU258
 815 0020 0A93     		str	r3, [sp, #40]
 121:Src/main.c    ****   canfil.FilterIdHigh = 0;
 816              		.loc 1 121 3 is_stmt 1 view .LVU259
 121:Src/main.c    ****   canfil.FilterIdHigh = 0;
 817              		.loc 1 121 31 is_stmt 0 view .LVU260
 818 0022 0122     		movs	r2, #1
 819 0024 0892     		str	r2, [sp, #32]
 122:Src/main.c    ****   canfil.FilterIdLow = 0;
 820              		.loc 1 122 3 is_stmt 1 view .LVU261
 122:Src/main.c    ****   canfil.FilterIdLow = 0;
 821              		.loc 1 122 23 is_stmt 0 view .LVU262
 822 0026 0493     		str	r3, [sp, #16]
 123:Src/main.c    ****   canfil.FilterMaskIdHigh = 0;
 823              		.loc 1 123 3 is_stmt 1 view .LVU263
 123:Src/main.c    ****   canfil.FilterMaskIdHigh = 0;
 824              		.loc 1 123 22 is_stmt 0 view .LVU264
 825 0028 0593     		str	r3, [sp, #20]
 124:Src/main.c    ****   canfil.FilterMaskIdLow = 0;
 826              		.loc 1 124 3 is_stmt 1 view .LVU265
ARM GAS  C:\Users\Administrator.DESKTOP-24M4MSA\AppData\Local\Temp\ccbl61Tc.s 			page 26


 124:Src/main.c    ****   canfil.FilterMaskIdLow = 0;
 827              		.loc 1 124 27 is_stmt 0 view .LVU266
 828 002a 0693     		str	r3, [sp, #24]
 125:Src/main.c    ****   canfil.FilterScale = CAN_FILTERSCALE_32BIT;
 829              		.loc 1 125 3 is_stmt 1 view .LVU267
 125:Src/main.c    ****   canfil.FilterScale = CAN_FILTERSCALE_32BIT;
 830              		.loc 1 125 26 is_stmt 0 view .LVU268
 831 002c 0793     		str	r3, [sp, #28]
 126:Src/main.c    ****   canfil.FilterActivation = ENABLE;
 832              		.loc 1 126 3 is_stmt 1 view .LVU269
 126:Src/main.c    ****   canfil.FilterActivation = ENABLE;
 833              		.loc 1 126 22 is_stmt 0 view .LVU270
 834 002e 0B92     		str	r2, [sp, #44]
 127:Src/main.c    ****   canfil.SlaveStartFilterBank = 14;
 835              		.loc 1 127 3 is_stmt 1 view .LVU271
 127:Src/main.c    ****   canfil.SlaveStartFilterBank = 14;
 836              		.loc 1 127 27 is_stmt 0 view .LVU272
 837 0030 0C92     		str	r2, [sp, #48]
 128:Src/main.c    **** 
 838              		.loc 1 128 3 is_stmt 1 view .LVU273
 128:Src/main.c    **** 
 839              		.loc 1 128 31 is_stmt 0 view .LVU274
 840 0032 0E22     		movs	r2, #14
 841 0034 0D92     		str	r2, [sp, #52]
 130:Src/main.c    ****   txHeader.IDE = CAN_ID_STD;
 842              		.loc 1 130 3 is_stmt 1 view .LVU275
 130:Src/main.c    ****   txHeader.IDE = CAN_ID_STD;
 843              		.loc 1 130 16 is_stmt 0 view .LVU276
 844 0036 0822     		movs	r2, #8
 845 0038 1292     		str	r2, [sp, #72]
 131:Src/main.c    ****   txHeader.RTR = CAN_RTR_DATA;
 846              		.loc 1 131 3 is_stmt 1 view .LVU277
 131:Src/main.c    ****   txHeader.RTR = CAN_RTR_DATA;
 847              		.loc 1 131 16 is_stmt 0 view .LVU278
 848 003a 1093     		str	r3, [sp, #64]
 132:Src/main.c    ****   txHeader.StdId = 0x200;
 849              		.loc 1 132 3 is_stmt 1 view .LVU279
 132:Src/main.c    ****   txHeader.StdId = 0x200;
 850              		.loc 1 132 16 is_stmt 0 view .LVU280
 851 003c 1193     		str	r3, [sp, #68]
 133:Src/main.c    ****   txHeader.ExtId = 0x0;
 852              		.loc 1 133 3 is_stmt 1 view .LVU281
 133:Src/main.c    ****   txHeader.ExtId = 0x0;
 853              		.loc 1 133 18 is_stmt 0 view .LVU282
 854 003e 4FF40072 		mov	r2, #512
 855 0042 0E92     		str	r2, [sp, #56]
 134:Src/main.c    ****   txHeader.TransmitGlobalTime = DISABLE;
 856              		.loc 1 134 3 is_stmt 1 view .LVU283
 134:Src/main.c    ****   txHeader.TransmitGlobalTime = DISABLE;
 857              		.loc 1 134 18 is_stmt 0 view .LVU284
 858 0044 0F93     		str	r3, [sp, #60]
 135:Src/main.c    **** 
 859              		.loc 1 135 3 is_stmt 1 view .LVU285
 135:Src/main.c    **** 
 860              		.loc 1 135 31 is_stmt 0 view .LVU286
 861 0046 8DF84C30 		strb	r3, [sp, #76]
 137:Src/main.c    ****   // HAL_CAN_ActivateNotification(&hcan, CAN_IT_RX_FIFO1_MSG_PENDING);
ARM GAS  C:\Users\Administrator.DESKTOP-24M4MSA\AppData\Local\Temp\ccbl61Tc.s 			page 27


 862              		.loc 1 137 3 is_stmt 1 view .LVU287
 863 004a 3E4C     		ldr	r4, .L50
 864 004c 04A9     		add	r1, sp, #16
 865 004e 2046     		mov	r0, r4
 866 0050 FFF7FEFF 		bl	HAL_CAN_ConfigFilter
 867              	.LVL42:
 139:Src/main.c    **** 
 868              		.loc 1 139 3 view .LVU288
 869 0054 2046     		mov	r0, r4
 870 0056 FFF7FEFF 		bl	HAL_CAN_Start
 871              	.LVL43:
 141:Src/main.c    ****   pid_init(&motorB, 2, 0.2, 4, 8000, 16000);
 872              		.loc 1 141 3 view .LVU289
 873 005a 4FF08046 		mov	r6, #1073741824
 874 005e DFF8E880 		ldr	r8, .L50+4
 875 0062 3A4F     		ldr	r7, .L50+8
 876 0064 3A4D     		ldr	r5, .L50+12
 877 0066 0195     		str	r5, [sp, #4]	@ float
 878 0068 3A4C     		ldr	r4, .L50+16
 879 006a 0094     		str	r4, [sp]	@ float
 880 006c 3346     		mov	r3, r6
 881 006e 4246     		mov	r2, r8
 882 0070 3946     		mov	r1, r7
 883 0072 3948     		ldr	r0, .L50+20
 884 0074 FFF7FEFF 		bl	pid_init
 885              	.LVL44:
 142:Src/main.c    ****   pid_init(&motorC, 3, 0.5, 4, 8000, 16000);
 886              		.loc 1 142 3 view .LVU290
 887 0078 4FF08149 		mov	r9, #1082130432
 888 007c 0195     		str	r5, [sp, #4]	@ float
 889 007e 0094     		str	r4, [sp]	@ float
 890 0080 4B46     		mov	r3, r9
 891 0082 364A     		ldr	r2, .L50+24
 892 0084 3146     		mov	r1, r6
 893 0086 3648     		ldr	r0, .L50+28
 894 0088 FFF7FEFF 		bl	pid_init
 895              	.LVL45:
 143:Src/main.c    ****   pid_init(&motorD, 5, 0.1, 2, 8000, 16000);
 896              		.loc 1 143 3 view .LVU291
 897 008c 0195     		str	r5, [sp, #4]	@ float
 898 008e 0094     		str	r4, [sp]	@ float
 899 0090 4B46     		mov	r3, r9
 900 0092 4FF07C52 		mov	r2, #1056964608
 901 0096 3349     		ldr	r1, .L50+32
 902 0098 3348     		ldr	r0, .L50+36
 903 009a FFF7FEFF 		bl	pid_init
 904              	.LVL46:
 144:Src/main.c    ****   /* USER CODE END 2 */
 905              		.loc 1 144 3 view .LVU292
 906 009e 0195     		str	r5, [sp, #4]	@ float
 907 00a0 0094     		str	r4, [sp]	@ float
 908 00a2 3346     		mov	r3, r6
 909 00a4 4246     		mov	r2, r8
 910 00a6 3946     		mov	r1, r7
 911 00a8 3048     		ldr	r0, .L50+40
 912 00aa FFF7FEFF 		bl	pid_init
 913              	.LVL47:
ARM GAS  C:\Users\Administrator.DESKTOP-24M4MSA\AppData\Local\Temp\ccbl61Tc.s 			page 28


 914              	.L48:
 149:Src/main.c    ****   {
 915              		.loc 1 149 3 discriminator 1 view .LVU293
 154:Src/main.c    ****     canRxStatus = HAL_CAN_GetRxMessage(&hcan, CAN_RX_FIFO1, &rxHeader, (uint8_t *)canRX);
 916              		.loc 1 154 5 discriminator 1 view .LVU294
 154:Src/main.c    ****     canRxStatus = HAL_CAN_GetRxMessage(&hcan, CAN_RX_FIFO1, &rxHeader, (uint8_t *)canRX);
 917              		.loc 1 154 19 is_stmt 0 discriminator 1 view .LVU295
 918 00ae 304E     		ldr	r6, .L50+44
 919 00b0 244D     		ldr	r5, .L50
 920 00b2 03AB     		add	r3, sp, #12
 921 00b4 3246     		mov	r2, r6
 922 00b6 0EA9     		add	r1, sp, #56
 923 00b8 2846     		mov	r0, r5
 924 00ba FFF7FEFF 		bl	HAL_CAN_AddTxMessage
 925              	.LVL48:
 154:Src/main.c    ****     canRxStatus = HAL_CAN_GetRxMessage(&hcan, CAN_RX_FIFO1, &rxHeader, (uint8_t *)canRX);
 926              		.loc 1 154 17 discriminator 1 view .LVU296
 927 00be 2D4B     		ldr	r3, .L50+48
 928 00c0 1870     		strb	r0, [r3]
 155:Src/main.c    ****     current_rpm_B = 1-(~((canRX[2]<<8)+canRX[3]));
 929              		.loc 1 155 5 is_stmt 1 discriminator 1 view .LVU297
 155:Src/main.c    ****     current_rpm_B = 1-(~((canRX[2]<<8)+canRX[3]));
 930              		.loc 1 155 19 is_stmt 0 discriminator 1 view .LVU298
 931 00c2 2D4C     		ldr	r4, .L50+52
 932 00c4 2346     		mov	r3, r4
 933 00c6 2D4A     		ldr	r2, .L50+56
 934 00c8 0121     		movs	r1, #1
 935 00ca 2846     		mov	r0, r5
 936 00cc FFF7FEFF 		bl	HAL_CAN_GetRxMessage
 937              	.LVL49:
 155:Src/main.c    ****     current_rpm_B = 1-(~((canRX[2]<<8)+canRX[3]));
 938              		.loc 1 155 17 discriminator 1 view .LVU299
 939 00d0 2B4B     		ldr	r3, .L50+60
 940 00d2 1870     		strb	r0, [r3]
 156:Src/main.c    ****     CAN_Set_Motor_Voltage(pid_calc(&motorC,target,current_rpm_A),pid_calc(&motorB,target,current_rp
 941              		.loc 1 156 5 is_stmt 1 discriminator 1 view .LVU300
 156:Src/main.c    ****     CAN_Set_Motor_Voltage(pid_calc(&motorC,target,current_rpm_A),pid_calc(&motorB,target,current_rp
 942              		.loc 1 156 32 is_stmt 0 discriminator 1 view .LVU301
 943 00d4 A278     		ldrb	r2, [r4, #2]	@ zero_extendqisi2
 156:Src/main.c    ****     CAN_Set_Motor_Voltage(pid_calc(&motorC,target,current_rpm_A),pid_calc(&motorB,target,current_rp
 944              		.loc 1 156 45 discriminator 1 view .LVU302
 945 00d6 E378     		ldrb	r3, [r4, #3]	@ zero_extendqisi2
 156:Src/main.c    ****     CAN_Set_Motor_Voltage(pid_calc(&motorC,target,current_rpm_A),pid_calc(&motorB,target,current_rp
 946              		.loc 1 156 39 discriminator 1 view .LVU303
 947 00d8 03EB0223 		add	r3, r3, r2, lsl #8
 948 00dc 9BB2     		uxth	r3, r3
 156:Src/main.c    ****     CAN_Set_Motor_Voltage(pid_calc(&motorC,target,current_rpm_A),pid_calc(&motorB,target,current_rp
 949              		.loc 1 156 22 discriminator 1 view .LVU304
 950 00de 0233     		adds	r3, r3, #2
 156:Src/main.c    ****     CAN_Set_Motor_Voltage(pid_calc(&motorC,target,current_rpm_A),pid_calc(&motorB,target,current_rp
 951              		.loc 1 156 19 discriminator 1 view .LVU305
 952 00e0 DFF8A080 		ldr	r8, .L50+64
 953 00e4 A8F80030 		strh	r3, [r8]	@ movhi
 157:Src/main.c    ****     // encoder = canRX[0] << 8 | canRX[1];
 954              		.loc 1 157 5 is_stmt 1 discriminator 1 view .LVU306
 157:Src/main.c    ****     // encoder = canRX[0] << 8 | canRX[1];
 955              		.loc 1 157 27 is_stmt 0 discriminator 1 view .LVU307
ARM GAS  C:\Users\Administrator.DESKTOP-24M4MSA\AppData\Local\Temp\ccbl61Tc.s 			page 29


 956 00e8 274B     		ldr	r3, .L50+68
 957 00ea B3F90000 		ldrsh	r0, [r3]
 958 00ee FFF7FEFF 		bl	__aeabi_i2f
 959              	.LVL50:
 960 00f2 0446     		mov	r4, r0
 961 00f4 254F     		ldr	r7, .L50+72
 962 00f6 3888     		ldrh	r0, [r7]
 963 00f8 FFF7FEFF 		bl	__aeabi_ui2f
 964              	.LVL51:
 965 00fc 0146     		mov	r1, r0
 966 00fe 2246     		mov	r2, r4
 967 0100 1948     		ldr	r0, .L50+36
 968 0102 FFF7FEFF 		bl	pid_calc
 969              	.LVL52:
 970 0106 0546     		mov	r5, r0
 157:Src/main.c    ****     // encoder = canRX[0] << 8 | canRX[1];
 971              		.loc 1 157 66 discriminator 1 view .LVU308
 972 0108 B8F90000 		ldrsh	r0, [r8]
 973 010c FFF7FEFF 		bl	__aeabi_i2f
 974              	.LVL53:
 975 0110 0446     		mov	r4, r0
 976 0112 3888     		ldrh	r0, [r7]
 977 0114 FFF7FEFF 		bl	__aeabi_ui2f
 978              	.LVL54:
 979 0118 0146     		mov	r1, r0
 980 011a 2246     		mov	r2, r4
 981 011c 1048     		ldr	r0, .L50+28
 982 011e FFF7FEFF 		bl	pid_calc
 983              	.LVL55:
 157:Src/main.c    ****     // encoder = canRX[0] << 8 | canRX[1];
 984              		.loc 1 157 5 discriminator 1 view .LVU309
 985 0122 FFF7FEFF 		bl	__aeabi_f2uiz
 986              	.LVL56:
 987 0126 84B2     		uxth	r4, r0
 988 0128 2846     		mov	r0, r5
 989 012a FFF7FEFF 		bl	__aeabi_f2uiz
 990              	.LVL57:
 991 012e 0096     		str	r6, [sp]
 992 0130 0023     		movs	r3, #0
 993 0132 1A46     		mov	r2, r3
 994 0134 2146     		mov	r1, r4
 995 0136 80B2     		uxth	r0, r0
 996 0138 FFF7FEFF 		bl	CAN_Set_Motor_Voltage
 997              	.LVL58:
 159:Src/main.c    ****   }
 998              		.loc 1 159 5 is_stmt 1 discriminator 1 view .LVU310
 999 013c 0520     		movs	r0, #5
 1000 013e FFF7FEFF 		bl	HAL_Delay
 1001              	.LVL59:
 149:Src/main.c    ****   {
 1002              		.loc 1 149 9 discriminator 1 view .LVU311
 1003 0142 B4E7     		b	.L48
 1004              	.L51:
 1005              		.align	2
 1006              	.L50:
 1007 0144 00000000 		.word	.LANCHOR2
 1008 0148 CDCCCC3D 		.word	1036831949
ARM GAS  C:\Users\Administrator.DESKTOP-24M4MSA\AppData\Local\Temp\ccbl61Tc.s 			page 30


 1009 014c 0000A040 		.word	1084227584
 1010 0150 00007A46 		.word	1182400512
 1011 0154 0000FA45 		.word	1174011904
 1012 0158 00000000 		.word	.LANCHOR3
 1013 015c CDCC4C3E 		.word	1045220557
 1014 0160 00000000 		.word	.LANCHOR4
 1015 0164 00004040 		.word	1077936128
 1016 0168 00000000 		.word	.LANCHOR5
 1017 016c 00000000 		.word	.LANCHOR6
 1018 0170 00000000 		.word	.LANCHOR7
 1019 0174 00000000 		.word	.LANCHOR8
 1020 0178 00000000 		.word	.LANCHOR9
 1021 017c 00000000 		.word	.LANCHOR10
 1022 0180 00000000 		.word	.LANCHOR11
 1023 0184 00000000 		.word	.LANCHOR12
 1024 0188 00000000 		.word	.LANCHOR13
 1025 018c 00000000 		.word	.LANCHOR14
 1026              		.cfi_endproc
 1027              	.LFE65:
 1029              		.section	.text.CAN_RxFifo1MsgPendingCallBack,"ax",%progbits
 1030              		.align	1
 1031              		.global	CAN_RxFifo1MsgPendingCallBack
 1032              		.syntax unified
 1033              		.thumb
 1034              		.thumb_func
 1035              		.fpu softvfp
 1037              	CAN_RxFifo1MsgPendingCallBack:
 1038              	.LVL60:
 1039              	.LFB71:
 373:Src/main.c    ****   if (HAL_CAN_GetRxMessage(&hcan, CAN_RX_FIFO1, &rxHeader, (uint8_t *)canRX) != HAL_OK){
 1040              		.loc 1 373 73 view -0
 1041              		.cfi_startproc
 1042              		@ args = 0, pretend = 0, frame = 8
 1043              		@ frame_needed = 0, uses_anonymous_args = 0
 373:Src/main.c    ****   if (HAL_CAN_GetRxMessage(&hcan, CAN_RX_FIFO1, &rxHeader, (uint8_t *)canRX) != HAL_OK){
 1044              		.loc 1 373 73 is_stmt 0 view .LVU313
 1045 0000 10B5     		push	{r4, lr}
 1046              	.LCFI18:
 1047              		.cfi_def_cfa_offset 8
 1048              		.cfi_offset 4, -8
 1049              		.cfi_offset 14, -4
 1050 0002 82B0     		sub	sp, sp, #8
 1051              	.LCFI19:
 1052              		.cfi_def_cfa_offset 16
 1053 0004 0190     		str	r0, [sp, #4]
 374:Src/main.c    ****     Error_Handler();
 1054              		.loc 1 374 3 is_stmt 1 view .LVU314
 374:Src/main.c    ****     Error_Handler();
 1055              		.loc 1 374 7 is_stmt 0 view .LVU315
 1056 0006 114B     		ldr	r3, .L58
 1057 0008 114A     		ldr	r2, .L58+4
 1058 000a 0121     		movs	r1, #1
 1059 000c 01A8     		add	r0, sp, #4
 1060              	.LVL61:
 374:Src/main.c    ****     Error_Handler();
 1061              		.loc 1 374 7 view .LVU316
 1062 000e FFF7FEFF 		bl	HAL_CAN_GetRxMessage
ARM GAS  C:\Users\Administrator.DESKTOP-24M4MSA\AppData\Local\Temp\ccbl61Tc.s 			page 31


 1063              	.LVL62:
 374:Src/main.c    ****     Error_Handler();
 1064              		.loc 1 374 6 view .LVU317
 1065 0012 30B1     		cbz	r0, .L53
 375:Src/main.c    ****     canRxStatus = HAL_ERROR;
 1066              		.loc 1 375 5 is_stmt 1 view .LVU318
 1067 0014 FFF7FEFF 		bl	Error_Handler
 1068              	.LVL63:
 376:Src/main.c    ****   }
 1069              		.loc 1 376 5 view .LVU319
 376:Src/main.c    ****   }
 1070              		.loc 1 376 17 is_stmt 0 view .LVU320
 1071 0018 0E4B     		ldr	r3, .L58+8
 1072 001a 0122     		movs	r2, #1
 1073 001c 1A70     		strb	r2, [r3]
 1074              	.L54:
 386:Src/main.c    **** void CAN_Set_Motor_Voltage(uint16_t v1, uint16_t v2, uint16_t v3, uint16_t v4, uint8_t target_buffe
 1075              		.loc 1 386 1 view .LVU321
 1076 001e 02B0     		add	sp, sp, #8
 1077              	.LCFI20:
 1078              		.cfi_remember_state
 1079              		.cfi_def_cfa_offset 8
 1080              		@ sp needed
 1081 0020 10BD     		pop	{r4, pc}
 1082              	.L53:
 1083              	.LCFI21:
 1084              		.cfi_restore_state
 379:Src/main.c    ****     canRxStatus = HAL_OK;
 1085              		.loc 1 379 5 is_stmt 1 view .LVU322
 1086 0022 1021     		movs	r1, #16
 1087 0024 01A8     		add	r0, sp, #4
 1088 0026 FFF7FEFF 		bl	HAL_CAN_ActivateNotification
 1089              	.LVL64:
 380:Src/main.c    ****     for(int i=0;i<6;i++){
 1090              		.loc 1 380 5 view .LVU323
 380:Src/main.c    ****     for(int i=0;i<6;i++){
 1091              		.loc 1 380 17 is_stmt 0 view .LVU324
 1092 002a 0024     		movs	r4, #0
 1093 002c 094B     		ldr	r3, .L58+8
 1094 002e 1C70     		strb	r4, [r3]
 381:Src/main.c    ****     HAL_GPIO_TogglePin(GPIOC, GPIO_PIN_13);
 1095              		.loc 1 381 5 is_stmt 1 view .LVU325
 1096              	.LBB6:
 381:Src/main.c    ****     HAL_GPIO_TogglePin(GPIOC, GPIO_PIN_13);
 1097              		.loc 1 381 9 view .LVU326
 1098              	.LVL65:
 381:Src/main.c    ****     HAL_GPIO_TogglePin(GPIOC, GPIO_PIN_13);
 1099              		.loc 1 381 5 is_stmt 0 view .LVU327
 1100 0030 08E0     		b	.L55
 1101              	.LVL66:
 1102              	.L56:
 382:Src/main.c    ****     HAL_Delay(200);
 1103              		.loc 1 382 5 is_stmt 1 discriminator 3 view .LVU328
 1104 0032 4FF40051 		mov	r1, #8192
 1105 0036 0848     		ldr	r0, .L58+12
 1106 0038 FFF7FEFF 		bl	HAL_GPIO_TogglePin
 1107              	.LVL67:
ARM GAS  C:\Users\Administrator.DESKTOP-24M4MSA\AppData\Local\Temp\ccbl61Tc.s 			page 32


 383:Src/main.c    ****   }
 1108              		.loc 1 383 5 discriminator 3 view .LVU329
 1109 003c C820     		movs	r0, #200
 1110 003e FFF7FEFF 		bl	HAL_Delay
 1111              	.LVL68:
 381:Src/main.c    ****     HAL_GPIO_TogglePin(GPIOC, GPIO_PIN_13);
 1112              		.loc 1 381 21 discriminator 3 view .LVU330
 381:Src/main.c    ****     HAL_GPIO_TogglePin(GPIOC, GPIO_PIN_13);
 1113              		.loc 1 381 22 is_stmt 0 discriminator 3 view .LVU331
 1114 0042 0134     		adds	r4, r4, #1
 1115              	.LVL69:
 1116              	.L55:
 381:Src/main.c    ****     HAL_GPIO_TogglePin(GPIOC, GPIO_PIN_13);
 1117              		.loc 1 381 17 is_stmt 1 discriminator 1 view .LVU332
 381:Src/main.c    ****     HAL_GPIO_TogglePin(GPIOC, GPIO_PIN_13);
 1118              		.loc 1 381 5 is_stmt 0 discriminator 1 view .LVU333
 1119 0044 052C     		cmp	r4, #5
 1120 0046 F4DD     		ble	.L56
 1121 0048 E9E7     		b	.L54
 1122              	.L59:
 1123 004a 00BF     		.align	2
 1124              	.L58:
 1125 004c 00000000 		.word	.LANCHOR9
 1126 0050 00000000 		.word	.LANCHOR10
 1127 0054 00000000 		.word	.LANCHOR11
 1128 0058 00100140 		.word	1073811456
 1129              	.LBE6:
 1130              		.cfi_endproc
 1131              	.LFE71:
 1133              		.global	motorD
 1134              		.global	motorC
 1135              		.global	motorB
 1136              		.global	motorA
 1137              		.global	current_rpm_D
 1138              		.global	current_rpm_C
 1139              		.global	current_rpm_B
 1140              		.global	current_rpm_A
 1141              		.global	target
 1142              		.global	msg
 1143              		.global	huart2
 1144              		.global	htim1
 1145              		.global	hcan
 1146              		.section	.bss.canRX,"aw",%nobits
 1147              		.align	2
 1148              		.set	.LANCHOR9,. + 0
 1151              	canRX:
 1152 0000 00000000 		.space	8
 1152      00000000 
 1153              		.section	.bss.canRxStatus,"aw",%nobits
 1154              		.set	.LANCHOR11,. + 0
 1157              	canRxStatus:
 1158 0000 00       		.space	1
 1159              		.section	.bss.canTxStatus,"aw",%nobits
 1160              		.set	.LANCHOR8,. + 0
 1163              	canTxStatus:
 1164 0000 00       		.space	1
 1165              		.section	.bss.current_rpm_A,"aw",%nobits
ARM GAS  C:\Users\Administrator.DESKTOP-24M4MSA\AppData\Local\Temp\ccbl61Tc.s 			page 33


 1166              		.align	1
 1167              		.set	.LANCHOR13,. + 0
 1170              	current_rpm_A:
 1171 0000 0000     		.space	2
 1172              		.section	.bss.current_rpm_B,"aw",%nobits
 1173              		.align	1
 1174              		.set	.LANCHOR12,. + 0
 1177              	current_rpm_B:
 1178 0000 0000     		.space	2
 1179              		.section	.bss.current_rpm_C,"aw",%nobits
 1180              		.align	1
 1183              	current_rpm_C:
 1184 0000 0000     		.space	2
 1185              		.section	.bss.current_rpm_D,"aw",%nobits
 1186              		.align	1
 1189              	current_rpm_D:
 1190 0000 0000     		.space	2
 1191              		.section	.bss.encoder.0,"aw",%nobits
 1192              		.align	1
 1195              	encoder.0:
 1196 0000 0000     		.space	2
 1197              		.section	.bss.hcan,"aw",%nobits
 1198              		.align	2
 1199              		.set	.LANCHOR2,. + 0
 1202              	hcan:
 1203 0000 00000000 		.space	40
 1203      00000000 
 1203      00000000 
 1203      00000000 
 1203      00000000 
 1204              		.section	.bss.htim1,"aw",%nobits
 1205              		.align	2
 1206              		.set	.LANCHOR0,. + 0
 1209              	htim1:
 1210 0000 00000000 		.space	72
 1210      00000000 
 1210      00000000 
 1210      00000000 
 1210      00000000 
 1211              		.section	.bss.huart2,"aw",%nobits
 1212              		.align	2
 1213              		.set	.LANCHOR1,. + 0
 1216              	huart2:
 1217 0000 00000000 		.space	68
 1217      00000000 
 1217      00000000 
 1217      00000000 
 1217      00000000 
 1218              		.section	.bss.motorA,"aw",%nobits
 1219              		.align	2
 1220              		.set	.LANCHOR3,. + 0
 1223              	motorA:
 1224 0000 00000000 		.space	52
 1224      00000000 
 1224      00000000 
 1224      00000000 
 1224      00000000 
ARM GAS  C:\Users\Administrator.DESKTOP-24M4MSA\AppData\Local\Temp\ccbl61Tc.s 			page 34


 1225              		.section	.bss.motorB,"aw",%nobits
 1226              		.align	2
 1227              		.set	.LANCHOR4,. + 0
 1230              	motorB:
 1231 0000 00000000 		.space	52
 1231      00000000 
 1231      00000000 
 1231      00000000 
 1231      00000000 
 1232              		.section	.bss.motorC,"aw",%nobits
 1233              		.align	2
 1234              		.set	.LANCHOR5,. + 0
 1237              	motorC:
 1238 0000 00000000 		.space	52
 1238      00000000 
 1238      00000000 
 1238      00000000 
 1238      00000000 
 1239              		.section	.bss.motorD,"aw",%nobits
 1240              		.align	2
 1241              		.set	.LANCHOR6,. + 0
 1244              	motorD:
 1245 0000 00000000 		.space	52
 1245      00000000 
 1245      00000000 
 1245      00000000 
 1245      00000000 
 1246              		.section	.bss.msg,"aw",%nobits
 1247              		.align	2
 1248              		.set	.LANCHOR7,. + 0
 1251              	msg:
 1252 0000 00000000 		.space	8
 1252      00000000 
 1253              		.section	.bss.rxHeader,"aw",%nobits
 1254              		.align	2
 1255              		.set	.LANCHOR10,. + 0
 1258              	rxHeader:
 1259 0000 00000000 		.space	28
 1259      00000000 
 1259      00000000 
 1259      00000000 
 1259      00000000 
 1260              		.section	.data.target,"aw"
 1261              		.align	1
 1262              		.set	.LANCHOR14,. + 0
 1265              	target:
 1266 0000 5802     		.short	600
 1267              		.text
 1268              	.Letext0:
 1269              		.file 2 "c:\\program files (x86)\\gnu arm embedded toolchain\\10 2021.07\\arm-none-eabi\\include\\
 1270              		.file 3 "c:\\program files (x86)\\gnu arm embedded toolchain\\10 2021.07\\arm-none-eabi\\include\\
 1271              		.file 4 "Drivers/CMSIS/Device/ST/STM32F1xx/Include/stm32f103xb.h"
 1272              		.file 5 "Drivers/CMSIS/Device/ST/STM32F1xx/Include/stm32f1xx.h"
 1273              		.file 6 "Drivers/STM32F1xx_HAL_Driver/Inc/stm32f1xx_hal_def.h"
 1274              		.file 7 "Drivers/STM32F1xx_HAL_Driver/Inc/stm32f1xx_hal_rcc.h"
 1275              		.file 8 "Drivers/STM32F1xx_HAL_Driver/Inc/stm32f1xx_hal_rcc_ex.h"
 1276              		.file 9 "Drivers/STM32F1xx_HAL_Driver/Inc/stm32f1xx_hal_gpio.h"
ARM GAS  C:\Users\Administrator.DESKTOP-24M4MSA\AppData\Local\Temp\ccbl61Tc.s 			page 35


 1277              		.file 10 "Drivers/STM32F1xx_HAL_Driver/Inc/stm32f1xx_hal_dma.h"
 1278              		.file 11 "Drivers/STM32F1xx_HAL_Driver/Inc/stm32f1xx_hal_can.h"
 1279              		.file 12 "Drivers/STM32F1xx_HAL_Driver/Inc/stm32f1xx_hal_tim.h"
 1280              		.file 13 "Drivers/STM32F1xx_HAL_Driver/Inc/stm32f1xx_hal_uart.h"
 1281              		.file 14 "private/pid.h"
 1282              		.file 15 "Drivers/STM32F1xx_HAL_Driver/Inc/stm32f1xx_hal.h"
 1283              		.file 16 "Drivers/STM32F1xx_HAL_Driver/Inc/stm32f1xx_hal_tim_ex.h"
 1284              		.file 17 "Inc/main.h"
 1285              		.file 18 "<built-in>"
ARM GAS  C:\Users\Administrator.DESKTOP-24M4MSA\AppData\Local\Temp\ccbl61Tc.s 			page 36


DEFINED SYMBOLS
                            *ABS*:00000000 main.c
C:\Users\Administrator.DESKTOP-24M4MSA\AppData\Local\Temp\ccbl61Tc.s:16     .text.MX_GPIO_Init:00000000 $t
C:\Users\Administrator.DESKTOP-24M4MSA\AppData\Local\Temp\ccbl61Tc.s:23     .text.MX_GPIO_Init:00000000 MX_GPIO_Init
C:\Users\Administrator.DESKTOP-24M4MSA\AppData\Local\Temp\ccbl61Tc.s:127    .text.MX_GPIO_Init:00000070 $d
C:\Users\Administrator.DESKTOP-24M4MSA\AppData\Local\Temp\ccbl61Tc.s:133    .text.CAN_Set_Motor_Voltage:00000000 $t
C:\Users\Administrator.DESKTOP-24M4MSA\AppData\Local\Temp\ccbl61Tc.s:140    .text.CAN_Set_Motor_Voltage:00000000 CAN_Set_Motor_Voltage
C:\Users\Administrator.DESKTOP-24M4MSA\AppData\Local\Temp\ccbl61Tc.s:201    .text.Error_Handler:00000000 $t
C:\Users\Administrator.DESKTOP-24M4MSA\AppData\Local\Temp\ccbl61Tc.s:208    .text.Error_Handler:00000000 Error_Handler
C:\Users\Administrator.DESKTOP-24M4MSA\AppData\Local\Temp\ccbl61Tc.s:255    .text.Error_Handler:00000020 $d
C:\Users\Administrator.DESKTOP-24M4MSA\AppData\Local\Temp\ccbl61Tc.s:260    .text.MX_TIM1_Init:00000000 $t
C:\Users\Administrator.DESKTOP-24M4MSA\AppData\Local\Temp\ccbl61Tc.s:266    .text.MX_TIM1_Init:00000000 MX_TIM1_Init
C:\Users\Administrator.DESKTOP-24M4MSA\AppData\Local\Temp\ccbl61Tc.s:486    .text.MX_TIM1_Init:000000d8 $d
C:\Users\Administrator.DESKTOP-24M4MSA\AppData\Local\Temp\ccbl61Tc.s:492    .text.MX_USART2_UART_Init:00000000 $t
C:\Users\Administrator.DESKTOP-24M4MSA\AppData\Local\Temp\ccbl61Tc.s:498    .text.MX_USART2_UART_Init:00000000 MX_USART2_UART_Init
C:\Users\Administrator.DESKTOP-24M4MSA\AppData\Local\Temp\ccbl61Tc.s:556    .text.MX_USART2_UART_Init:0000002c $d
C:\Users\Administrator.DESKTOP-24M4MSA\AppData\Local\Temp\ccbl61Tc.s:562    .text.MX_CAN_Init:00000000 $t
C:\Users\Administrator.DESKTOP-24M4MSA\AppData\Local\Temp\ccbl61Tc.s:568    .text.MX_CAN_Init:00000000 MX_CAN_Init
C:\Users\Administrator.DESKTOP-24M4MSA\AppData\Local\Temp\ccbl61Tc.s:639    .text.MX_CAN_Init:00000038 $d
C:\Users\Administrator.DESKTOP-24M4MSA\AppData\Local\Temp\ccbl61Tc.s:645    .text.SystemClock_Config:00000000 $t
C:\Users\Administrator.DESKTOP-24M4MSA\AppData\Local\Temp\ccbl61Tc.s:652    .text.SystemClock_Config:00000000 SystemClock_Config
C:\Users\Administrator.DESKTOP-24M4MSA\AppData\Local\Temp\ccbl61Tc.s:765    .text.main:00000000 $t
C:\Users\Administrator.DESKTOP-24M4MSA\AppData\Local\Temp\ccbl61Tc.s:772    .text.main:00000000 main
C:\Users\Administrator.DESKTOP-24M4MSA\AppData\Local\Temp\ccbl61Tc.s:1007   .text.main:00000144 $d
C:\Users\Administrator.DESKTOP-24M4MSA\AppData\Local\Temp\ccbl61Tc.s:1030   .text.CAN_RxFifo1MsgPendingCallBack:00000000 $t
C:\Users\Administrator.DESKTOP-24M4MSA\AppData\Local\Temp\ccbl61Tc.s:1037   .text.CAN_RxFifo1MsgPendingCallBack:00000000 CAN_RxFifo1MsgPendingCallBack
C:\Users\Administrator.DESKTOP-24M4MSA\AppData\Local\Temp\ccbl61Tc.s:1125   .text.CAN_RxFifo1MsgPendingCallBack:0000004c $d
C:\Users\Administrator.DESKTOP-24M4MSA\AppData\Local\Temp\ccbl61Tc.s:1244   .bss.motorD:00000000 motorD
C:\Users\Administrator.DESKTOP-24M4MSA\AppData\Local\Temp\ccbl61Tc.s:1237   .bss.motorC:00000000 motorC
C:\Users\Administrator.DESKTOP-24M4MSA\AppData\Local\Temp\ccbl61Tc.s:1230   .bss.motorB:00000000 motorB
C:\Users\Administrator.DESKTOP-24M4MSA\AppData\Local\Temp\ccbl61Tc.s:1223   .bss.motorA:00000000 motorA
C:\Users\Administrator.DESKTOP-24M4MSA\AppData\Local\Temp\ccbl61Tc.s:1189   .bss.current_rpm_D:00000000 current_rpm_D
C:\Users\Administrator.DESKTOP-24M4MSA\AppData\Local\Temp\ccbl61Tc.s:1183   .bss.current_rpm_C:00000000 current_rpm_C
C:\Users\Administrator.DESKTOP-24M4MSA\AppData\Local\Temp\ccbl61Tc.s:1177   .bss.current_rpm_B:00000000 current_rpm_B
C:\Users\Administrator.DESKTOP-24M4MSA\AppData\Local\Temp\ccbl61Tc.s:1170   .bss.current_rpm_A:00000000 current_rpm_A
C:\Users\Administrator.DESKTOP-24M4MSA\AppData\Local\Temp\ccbl61Tc.s:1265   .data.target:00000000 target
C:\Users\Administrator.DESKTOP-24M4MSA\AppData\Local\Temp\ccbl61Tc.s:1251   .bss.msg:00000000 msg
C:\Users\Administrator.DESKTOP-24M4MSA\AppData\Local\Temp\ccbl61Tc.s:1216   .bss.huart2:00000000 huart2
C:\Users\Administrator.DESKTOP-24M4MSA\AppData\Local\Temp\ccbl61Tc.s:1209   .bss.htim1:00000000 htim1
C:\Users\Administrator.DESKTOP-24M4MSA\AppData\Local\Temp\ccbl61Tc.s:1202   .bss.hcan:00000000 hcan
C:\Users\Administrator.DESKTOP-24M4MSA\AppData\Local\Temp\ccbl61Tc.s:1147   .bss.canRX:00000000 $d
C:\Users\Administrator.DESKTOP-24M4MSA\AppData\Local\Temp\ccbl61Tc.s:1151   .bss.canRX:00000000 canRX
C:\Users\Administrator.DESKTOP-24M4MSA\AppData\Local\Temp\ccbl61Tc.s:1157   .bss.canRxStatus:00000000 canRxStatus
C:\Users\Administrator.DESKTOP-24M4MSA\AppData\Local\Temp\ccbl61Tc.s:1158   .bss.canRxStatus:00000000 $d
C:\Users\Administrator.DESKTOP-24M4MSA\AppData\Local\Temp\ccbl61Tc.s:1163   .bss.canTxStatus:00000000 canTxStatus
C:\Users\Administrator.DESKTOP-24M4MSA\AppData\Local\Temp\ccbl61Tc.s:1164   .bss.canTxStatus:00000000 $d
C:\Users\Administrator.DESKTOP-24M4MSA\AppData\Local\Temp\ccbl61Tc.s:1166   .bss.current_rpm_A:00000000 $d
C:\Users\Administrator.DESKTOP-24M4MSA\AppData\Local\Temp\ccbl61Tc.s:1173   .bss.current_rpm_B:00000000 $d
C:\Users\Administrator.DESKTOP-24M4MSA\AppData\Local\Temp\ccbl61Tc.s:1180   .bss.current_rpm_C:00000000 $d
C:\Users\Administrator.DESKTOP-24M4MSA\AppData\Local\Temp\ccbl61Tc.s:1186   .bss.current_rpm_D:00000000 $d
C:\Users\Administrator.DESKTOP-24M4MSA\AppData\Local\Temp\ccbl61Tc.s:1192   .bss.encoder.0:00000000 $d
C:\Users\Administrator.DESKTOP-24M4MSA\AppData\Local\Temp\ccbl61Tc.s:1195   .bss.encoder.0:00000000 encoder.0
C:\Users\Administrator.DESKTOP-24M4MSA\AppData\Local\Temp\ccbl61Tc.s:1198   .bss.hcan:00000000 $d
C:\Users\Administrator.DESKTOP-24M4MSA\AppData\Local\Temp\ccbl61Tc.s:1205   .bss.htim1:00000000 $d
C:\Users\Administrator.DESKTOP-24M4MSA\AppData\Local\Temp\ccbl61Tc.s:1212   .bss.huart2:00000000 $d
C:\Users\Administrator.DESKTOP-24M4MSA\AppData\Local\Temp\ccbl61Tc.s:1219   .bss.motorA:00000000 $d
C:\Users\Administrator.DESKTOP-24M4MSA\AppData\Local\Temp\ccbl61Tc.s:1226   .bss.motorB:00000000 $d
ARM GAS  C:\Users\Administrator.DESKTOP-24M4MSA\AppData\Local\Temp\ccbl61Tc.s 			page 37


C:\Users\Administrator.DESKTOP-24M4MSA\AppData\Local\Temp\ccbl61Tc.s:1233   .bss.motorC:00000000 $d
C:\Users\Administrator.DESKTOP-24M4MSA\AppData\Local\Temp\ccbl61Tc.s:1240   .bss.motorD:00000000 $d
C:\Users\Administrator.DESKTOP-24M4MSA\AppData\Local\Temp\ccbl61Tc.s:1247   .bss.msg:00000000 $d
C:\Users\Administrator.DESKTOP-24M4MSA\AppData\Local\Temp\ccbl61Tc.s:1254   .bss.rxHeader:00000000 $d
C:\Users\Administrator.DESKTOP-24M4MSA\AppData\Local\Temp\ccbl61Tc.s:1258   .bss.rxHeader:00000000 rxHeader
C:\Users\Administrator.DESKTOP-24M4MSA\AppData\Local\Temp\ccbl61Tc.s:1261   .data.target:00000000 $d

UNDEFINED SYMBOLS
HAL_GPIO_WritePin
HAL_GPIO_Init
HAL_GPIO_TogglePin
HAL_Delay
memset
HAL_TIM_Base_Init
HAL_TIM_ConfigClockSource
HAL_TIM_OC_Init
HAL_TIMEx_MasterConfigSynchronization
HAL_TIM_OC_ConfigChannel
HAL_TIMEx_ConfigBreakDeadTime
HAL_TIM_MspPostInit
HAL_UART_Init
HAL_CAN_Init
HAL_RCC_OscConfig
HAL_RCC_ClockConfig
__aeabi_i2f
__aeabi_ui2f
__aeabi_f2uiz
HAL_Init
HAL_CAN_ConfigFilter
HAL_CAN_Start
pid_init
HAL_CAN_AddTxMessage
HAL_CAN_GetRxMessage
pid_calc
HAL_CAN_ActivateNotification
