ARM GAS  C:\Users\Administrator.DESKTOP-24M4MSA\AppData\Local\Temp\ccOsfb0b.s 			page 1


   1              		.cpu cortex-m3
   2              		.eabi_attribute 20, 1
   3              		.eabi_attribute 21, 1
   4              		.eabi_attribute 23, 3
   5              		.eabi_attribute 24, 1
   6              		.eabi_attribute 25, 1
   7              		.eabi_attribute 26, 1
   8              		.eabi_attribute 30, 1
   9              		.eabi_attribute 34, 1
  10              		.eabi_attribute 18, 4
  11              		.file	"main.c"
  12              		.text
  13              	.Ltext0:
  14              		.cfi_sections	.debug_frame
  15              		.section	.text.MX_GPIO_Init,"ax",%progbits
  16              		.align	1
  17              		.arch armv7-m
  18              		.syntax unified
  19              		.thumb
  20              		.thumb_func
  21              		.fpu softvfp
  23              	MX_GPIO_Init:
  24              	.LFB73:
  25              		.file 1 "Src/main.c"
   1:Src/main.c    **** /* USER CODE BEGIN Header */
   2:Src/main.c    **** /**
   3:Src/main.c    ****  ******************************************************************************
   4:Src/main.c    ****  * @file           : main.c
   5:Src/main.c    ****  * @brief          : Main program body
   6:Src/main.c    ****  ******************************************************************************
   7:Src/main.c    ****  * @attention
   8:Src/main.c    ****  *
   9:Src/main.c    ****  * <h2><center>&copy; Copyright (c) 2021 STMicroelectronics.
  10:Src/main.c    ****  * All rights reserved.</center></h2>
  11:Src/main.c    ****  *
  12:Src/main.c    ****  * This software component is licensed by ST under BSD 3-Clause license,
  13:Src/main.c    ****  * the "License"; You may not use this file except in compliance with the
  14:Src/main.c    ****  * License. You may obtain a copy of the License at:
  15:Src/main.c    ****  *                        opensource.org/licenses/BSD-3-Clause
  16:Src/main.c    ****  *
  17:Src/main.c    ****  ******************************************************************************
  18:Src/main.c    ****  */
  19:Src/main.c    **** /* USER CODE END Header */
  20:Src/main.c    **** 
  21:Src/main.c    **** /* Includes ------------------------------------------------------------------*/
  22:Src/main.c    **** #include "main.h"
  23:Src/main.c    **** 
  24:Src/main.c    **** /* Private includes ----------------------------------------------------------*/
  25:Src/main.c    **** /* USER CODE BEGIN Includes */
  26:Src/main.c    **** /* USER CODE END Includes */
  27:Src/main.c    **** 
  28:Src/main.c    **** /* Private typedef -----------------------------------------------------------*/
  29:Src/main.c    **** /* USER CODE BEGIN PTD */
  30:Src/main.c    **** 
  31:Src/main.c    **** /* USER CODE END PTD */
  32:Src/main.c    **** 
  33:Src/main.c    **** /* Private define ------------------------------------------------------------*/
ARM GAS  C:\Users\Administrator.DESKTOP-24M4MSA\AppData\Local\Temp\ccOsfb0b.s 			page 2


  34:Src/main.c    **** /* USER CODE BEGIN PD */
  35:Src/main.c    **** // #define kp 5
  36:Src/main.c    **** // #define ki 0.1
  37:Src/main.c    **** // #define kd 2
  38:Src/main.c    **** #define i_max 6000
  39:Src/main.c    **** #define out_max 18000
  40:Src/main.c    **** /* USER CODE END PD */
  41:Src/main.c    **** 
  42:Src/main.c    **** /* Private macro -------------------------------------------------------------*/
  43:Src/main.c    **** /* USER CODE BEGIN PM */
  44:Src/main.c    **** 
  45:Src/main.c    **** /* USER CODE END PM */
  46:Src/main.c    **** 
  47:Src/main.c    **** /* Private variables ---------------------------------------------------------*/
  48:Src/main.c    **** CAN_HandleTypeDef hcan;
  49:Src/main.c    **** 
  50:Src/main.c    **** TIM_HandleTypeDef htim2;
  51:Src/main.c    **** TIM_HandleTypeDef htim3;
  52:Src/main.c    **** 
  53:Src/main.c    **** UART_HandleTypeDef huart1;
  54:Src/main.c    **** UART_HandleTypeDef huart2;
  55:Src/main.c    **** DMA_HandleTypeDef hdma_usart1_rx;
  56:Src/main.c    **** 
  57:Src/main.c    **** /* USER CODE BEGIN PV */
  58:Src/main.c    **** uint8_t msg[8] = {4, 0, 4, 0, 4, 0, 4, 0};                   // CAN Bus Send Buffer
  59:Src/main.c    **** static volatile uint8_t canRX[8] = {0, 0, 0, 0, 0, 0, 0, 0}; // CAN Bus Receive Buffer
  60:Src/main.c    **** static CAN_TxHeaderTypeDef txHeader;                                // CAN Bus Receive Header
  61:Src/main.c    **** static CAN_RxHeaderTypeDef rxHeader;                         // CAN Bus Transmit Header
  62:Src/main.c    **** uint8_t dbus_rx_buffer[18]={0}; // receiver data buffer
  63:Src/main.c    **** RC_Ctl_t RC_CtrlData; // dbus channel typeder
  64:Src/main.c    **** static volatile HAL_StatusTypeDef canTxStatus = HAL_OK;
  65:Src/main.c    **** static volatile HAL_StatusTypeDef canRxStatus = HAL_OK;
  66:Src/main.c    **** uint32_t canMailbox;
  67:Src/main.c    **** uint16_t target = 600;
  68:Src/main.c    **** static volatile int16_t target_A=1200, target_B=-900, target_C=-600, target_D=850;
  69:Src/main.c    **** int vf=0,vr=150,vz=0,vg=150;
  70:Src/main.c    **** // static volatile int16_t target_A=0, target_B=0, target_C=0, target_D=0;
  71:Src/main.c    **** //A=-2, B=1.5, C=1. D=-17/12
  72:Src/main.c    **** static volatile int16_t current_rpm_A,current_rpm_B,current_rpm_C,current_rpm_D;
  73:Src/main.c    **** pid_struct_t motorA, motorB, motorC, motorD;
  74:Src/main.c    **** arm_struct_t arm;
  75:Src/main.c    **** /* USER CODE END PV */
  76:Src/main.c    **** 
  77:Src/main.c    **** /* Private function prototypes -----------------------------------------------*/
  78:Src/main.c    **** void SystemClock_Config(void);
  79:Src/main.c    **** static void MX_GPIO_Init(void);
  80:Src/main.c    **** static void MX_USART2_UART_Init(void);
  81:Src/main.c    **** static void MX_DMA_Init(void);
  82:Src/main.c    **** static void MX_CAN_Init(void);
  83:Src/main.c    **** static void MX_USART1_UART_Init(void);
  84:Src/main.c    **** static void MX_TIM2_Init(void);
  85:Src/main.c    **** static void MX_TIM3_Init(void);
  86:Src/main.c    **** /* USER CODE BEGIN PFP */
  87:Src/main.c    **** void CAN_Set_Motor_Voltage(int16_t v1_, int16_t v2_, int16_t v3_, int16_t v4_, uint8_t target_buffe
  88:Src/main.c    **** void Integrate_Control();
  89:Src/main.c    **** /* USER CODE END PFP */
  90:Src/main.c    **** 
ARM GAS  C:\Users\Administrator.DESKTOP-24M4MSA\AppData\Local\Temp\ccOsfb0b.s 			page 3


  91:Src/main.c    **** /* Private user code ---------------------------------------------------------*/
  92:Src/main.c    **** /* USER CODE BEGIN 0 */
  93:Src/main.c    **** 
  94:Src/main.c    **** /* USER CODE END 0 */
  95:Src/main.c    **** 
  96:Src/main.c    **** /**
  97:Src/main.c    ****   * @brief  The application entry point.
  98:Src/main.c    ****   * @retval int
  99:Src/main.c    ****   */
 100:Src/main.c    **** int main(void)
 101:Src/main.c    **** {
 102:Src/main.c    ****   /* USER CODE BEGIN 1 */
 103:Src/main.c    **** 
 104:Src/main.c    ****   /* USER CODE END 1 */
 105:Src/main.c    **** 
 106:Src/main.c    ****   /* MCU Configuration--------------------------------------------------------*/
 107:Src/main.c    **** 
 108:Src/main.c    ****   /* Reset of all peripherals, Initializes the Flash interface and the Systick. */
 109:Src/main.c    ****   HAL_Init();
 110:Src/main.c    **** 
 111:Src/main.c    ****   /* USER CODE BEGIN Init */
 112:Src/main.c    **** 
 113:Src/main.c    ****   /* USER CODE END Init */
 114:Src/main.c    **** 
 115:Src/main.c    ****   /* Configure the system clock */
 116:Src/main.c    ****   SystemClock_Config();
 117:Src/main.c    **** 
 118:Src/main.c    ****   /* USER CODE BEGIN SysInit */
 119:Src/main.c    **** 
 120:Src/main.c    ****   /* USER CODE END SysInit */
 121:Src/main.c    **** 
 122:Src/main.c    ****   /* Initialize all configured peripherals */
 123:Src/main.c    ****   MX_GPIO_Init();
 124:Src/main.c    ****   MX_USART2_UART_Init();
 125:Src/main.c    ****   MX_DMA_Init();
 126:Src/main.c    ****   MX_CAN_Init();
 127:Src/main.c    ****   MX_USART1_UART_Init();
 128:Src/main.c    ****   MX_TIM2_Init();
 129:Src/main.c    ****   MX_TIM3_Init();
 130:Src/main.c    ****   /* USER CODE BEGIN 2 */
 131:Src/main.c    ****   CAN_FilterTypeDef canfil; // CAN Bus Filter
 132:Src/main.c    **** 
 133:Src/main.c    ****   canfil.FilterBank = 0;
 134:Src/main.c    ****   canfil.FilterMode = CAN_FILTERMODE_IDMASK;
 135:Src/main.c    ****   canfil.FilterFIFOAssignment = CAN_RX_FIFO1;
 136:Src/main.c    ****   canfil.FilterIdHigh = 0;
 137:Src/main.c    ****   canfil.FilterIdLow = 0;
 138:Src/main.c    ****   canfil.FilterMaskIdHigh = 0;
 139:Src/main.c    ****   canfil.FilterMaskIdLow = 0;
 140:Src/main.c    ****   canfil.FilterScale = CAN_FILTERSCALE_32BIT;
 141:Src/main.c    ****   canfil.FilterActivation = ENABLE;
 142:Src/main.c    ****   canfil.SlaveStartFilterBank = 14;
 143:Src/main.c    **** 
 144:Src/main.c    ****   txHeader.DLC = 8; // Number of bites to be transmitted max- 8
 145:Src/main.c    ****   txHeader.IDE = CAN_ID_STD;
 146:Src/main.c    ****   txHeader.RTR = CAN_RTR_DATA;
 147:Src/main.c    ****   txHeader.StdId = 0x200;
ARM GAS  C:\Users\Administrator.DESKTOP-24M4MSA\AppData\Local\Temp\ccOsfb0b.s 			page 4


 148:Src/main.c    ****   txHeader.ExtId = 0x0;
 149:Src/main.c    ****   txHeader.TransmitGlobalTime = DISABLE;
 150:Src/main.c    **** 
 151:Src/main.c    ****   HAL_CAN_ConfigFilter(&hcan, &canfil);
 152:Src/main.c    ****   HAL_CAN_Start(&hcan);
 153:Src/main.c    ****   HAL_TIM_PWM_Start(&htim2, TIM_CHANNEL_1);
 154:Src/main.c    ****   HAL_TIM_PWM_Start(&htim2, TIM_CHANNEL_2);
 155:Src/main.c    ****   HAL_TIM_PWM_Start(&htim2, TIM_CHANNEL_3);
 156:Src/main.c    ****   HAL_TIM_PWM_Start(&htim2, TIM_CHANNEL_4);
 157:Src/main.c    ****   HAL_TIM_PWM_Start(&htim3, TIM_CHANNEL_1);
 158:Src/main.c    ****   // HAL_CAN_ActivateNotification(&hcan, CAN_IT_RX_FIFO1_MSG_PENDING);
 159:Src/main.c    ****   // HAL_CAN_GetRxMessage(&hcan, CAN_RX_FIFO0, &rxHeader, (uint8_t *)canRX);
 160:Src/main.c    ****   pid_init(&motorA, 5, 0.05, 0, 8000, 16000);
 161:Src/main.c    ****   pid_init(&motorB, 8, 1.5, 0, 8000, 16000);
 162:Src/main.c    ****   pid_init(&motorC, 8, 1.5, 0, 8000, 16000);
 163:Src/main.c    ****   pid_init(&motorD, 8, 1, 0, 8000, 16000);
 164:Src/main.c    ****   arm_init(&arm, 150, 150, 160, 150);
 165:Src/main.c    ****   HAL_UART_Receive_DMA(&huart1, dbus_rx_buffer, 18);
 166:Src/main.c    ****   /* USER CODE END 2 */
 167:Src/main.c    **** 
 168:Src/main.c    ****   /* Infinite loop */
 169:Src/main.c    ****   /* USER CODE BEGIN WHILE */
 170:Src/main.c    ****   while (1)
 171:Src/main.c    ****   {
 172:Src/main.c    ****     /* USER CODE END WHILE */
 173:Src/main.c    **** 
 174:Src/main.c    ****     /* USER CODE BEGIN 3 */
 175:Src/main.c    ****     
 176:Src/main.c    ****     canRxStatus = HAL_CAN_GetRxMessage(&hcan, CAN_RX_FIFO1, &rxHeader, (uint8_t *)canRX);
 177:Src/main.c    ****     switch(rxHeader.StdId){
 178:Src/main.c    ****       case 0x201:{
 179:Src/main.c    ****         current_rpm_A = -(1+~((canRX[2]<<8)+canRX[3]));
 180:Src/main.c    ****         break;
 181:Src/main.c    ****       }
 182:Src/main.c    ****       case 0x202:{
 183:Src/main.c    ****         current_rpm_B = -(1+~((canRX[2]<<8)+canRX[3]));
 184:Src/main.c    ****         break;
 185:Src/main.c    ****       }
 186:Src/main.c    ****       case 0x203:{
 187:Src/main.c    ****         current_rpm_C = -(1+~((canRX[2]<<8)+canRX[3]));
 188:Src/main.c    ****         break;
 189:Src/main.c    ****       }
 190:Src/main.c    ****       case 0x204:{
 191:Src/main.c    ****         current_rpm_D = -(1+~((canRX[2]<<8)+canRX[3]));
 192:Src/main.c    ****         break;
 193:Src/main.c    ****       }
 194:Src/main.c    ****     }
 195:Src/main.c    ****     // (RC_CtrlData.rc.s1>2)?vg++:vg--;
 196:Src/main.c    ****     // LIMIT_MIN_MAX(vg,150,220);
 197:Src/main.c    ****     // move_arm(&arm,vf,vr,vz,vg);
 198:Src/main.c    ****     // __HAL_TIM_SET_COMPARE(&htim2, TIM_CHANNEL_1, arm.angle[0]);
 199:Src/main.c    **** 	  // __HAL_TIM_SET_COMPARE(&htim2, TIM_CHANNEL_2, arm.angle[1]>>8);
 200:Src/main.c    **** 	  // // __HAL_TIM_SET_COMPARE(&htim2, TIM_CHANNEL_3, arm.angle[2]>>12);
 201:Src/main.c    ****     // __HAL_TIM_SET_COMPARE(&htim3, TIM_CHANNEL_1, arm.angle[2]>>12);
 202:Src/main.c    **** 	  // __HAL_TIM_SET_COMPARE(&htim2, TIM_CHANNEL_4, arm.angle[3]);
 203:Src/main.c    ****     // for(int i=50;i<=250;i++){
 204:Src/main.c    ****     //   __HAL_TIM_SET_COMPARE(&htim2, TIM_CHANNEL_4, i);
ARM GAS  C:\Users\Administrator.DESKTOP-24M4MSA\AppData\Local\Temp\ccOsfb0b.s 			page 5


 205:Src/main.c    ****     //   HAL_Delay(10);
 206:Src/main.c    ****     // }
 207:Src/main.c    ****     // for(int i=250;i>=50;i--){
 208:Src/main.c    ****     //   __HAL_TIM_SET_COMPARE(&htim2, TIM_CHANNEL_4, i);
 209:Src/main.c    ****     //   HAL_Delay(10);
 210:Src/main.c    ****     // }
 211:Src/main.c    ****   }
 212:Src/main.c    ****   /* USER CODE END 3 */
 213:Src/main.c    **** }
 214:Src/main.c    **** 
 215:Src/main.c    **** /**
 216:Src/main.c    ****   * @brief System Clock Configuration
 217:Src/main.c    ****   * @retval None
 218:Src/main.c    ****   */
 219:Src/main.c    **** void SystemClock_Config(void)
 220:Src/main.c    **** {
 221:Src/main.c    ****   RCC_OscInitTypeDef RCC_OscInitStruct = {0};
 222:Src/main.c    ****   RCC_ClkInitTypeDef RCC_ClkInitStruct = {0};
 223:Src/main.c    **** 
 224:Src/main.c    ****   /** Initializes the CPU, AHB and APB busses clocks
 225:Src/main.c    ****   */
 226:Src/main.c    ****   RCC_OscInitStruct.OscillatorType = RCC_OSCILLATORTYPE_HSE;
 227:Src/main.c    ****   RCC_OscInitStruct.HSEState = RCC_HSE_ON;
 228:Src/main.c    ****   RCC_OscInitStruct.HSEPredivValue = RCC_HSE_PREDIV_DIV1;
 229:Src/main.c    ****   RCC_OscInitStruct.HSIState = RCC_HSI_ON;
 230:Src/main.c    ****   RCC_OscInitStruct.PLL.PLLState = RCC_PLL_ON;
 231:Src/main.c    ****   RCC_OscInitStruct.PLL.PLLSource = RCC_PLLSOURCE_HSE;
 232:Src/main.c    ****   RCC_OscInitStruct.PLL.PLLMUL = RCC_PLL_MUL9;
 233:Src/main.c    ****   if (HAL_RCC_OscConfig(&RCC_OscInitStruct) != HAL_OK)
 234:Src/main.c    ****   {
 235:Src/main.c    ****     Error_Handler();
 236:Src/main.c    ****   }
 237:Src/main.c    ****   /** Initializes the CPU, AHB and APB busses clocks
 238:Src/main.c    ****   */
 239:Src/main.c    ****   RCC_ClkInitStruct.ClockType = RCC_CLOCKTYPE_HCLK|RCC_CLOCKTYPE_SYSCLK
 240:Src/main.c    ****                               |RCC_CLOCKTYPE_PCLK1|RCC_CLOCKTYPE_PCLK2;
 241:Src/main.c    ****   RCC_ClkInitStruct.SYSCLKSource = RCC_SYSCLKSOURCE_PLLCLK;
 242:Src/main.c    ****   RCC_ClkInitStruct.AHBCLKDivider = RCC_SYSCLK_DIV1;
 243:Src/main.c    ****   RCC_ClkInitStruct.APB1CLKDivider = RCC_HCLK_DIV2;
 244:Src/main.c    ****   RCC_ClkInitStruct.APB2CLKDivider = RCC_HCLK_DIV1;
 245:Src/main.c    **** 
 246:Src/main.c    ****   if (HAL_RCC_ClockConfig(&RCC_ClkInitStruct, FLASH_LATENCY_2) != HAL_OK)
 247:Src/main.c    ****   {
 248:Src/main.c    ****     Error_Handler();
 249:Src/main.c    ****   }
 250:Src/main.c    **** }
 251:Src/main.c    **** 
 252:Src/main.c    **** /**
 253:Src/main.c    ****   * @brief CAN Initialization Function
 254:Src/main.c    ****   * @param None
 255:Src/main.c    ****   * @retval None
 256:Src/main.c    ****   */
 257:Src/main.c    **** static void MX_CAN_Init(void)
 258:Src/main.c    **** {
 259:Src/main.c    **** 
 260:Src/main.c    ****   /* USER CODE BEGIN CAN_Init 0 */
 261:Src/main.c    **** 
ARM GAS  C:\Users\Administrator.DESKTOP-24M4MSA\AppData\Local\Temp\ccOsfb0b.s 			page 6


 262:Src/main.c    ****   /* USER CODE END CAN_Init 0 */
 263:Src/main.c    **** 
 264:Src/main.c    ****   /* USER CODE BEGIN CAN_Init 1 */
 265:Src/main.c    **** 
 266:Src/main.c    ****   /* USER CODE END CAN_Init 1 */
 267:Src/main.c    ****   hcan.Instance = CAN1;
 268:Src/main.c    ****   hcan.Init.Prescaler = 4;
 269:Src/main.c    ****   hcan.Init.Mode = CAN_MODE_NORMAL;
 270:Src/main.c    ****   hcan.Init.SyncJumpWidth = CAN_SJW_1TQ;
 271:Src/main.c    ****   hcan.Init.TimeSeg1 = CAN_BS1_6TQ;
 272:Src/main.c    ****   hcan.Init.TimeSeg2 = CAN_BS2_2TQ;
 273:Src/main.c    ****   hcan.Init.TimeTriggeredMode = DISABLE;
 274:Src/main.c    ****   hcan.Init.AutoBusOff = DISABLE;
 275:Src/main.c    ****   hcan.Init.AutoWakeUp = DISABLE;
 276:Src/main.c    ****   hcan.Init.AutoRetransmission = DISABLE;
 277:Src/main.c    ****   hcan.Init.ReceiveFifoLocked = DISABLE;
 278:Src/main.c    ****   hcan.Init.TransmitFifoPriority = DISABLE;
 279:Src/main.c    ****   if (HAL_CAN_Init(&hcan) != HAL_OK)
 280:Src/main.c    ****   {
 281:Src/main.c    ****     Error_Handler();
 282:Src/main.c    ****   }
 283:Src/main.c    ****   /* USER CODE BEGIN CAN_Init 2 */
 284:Src/main.c    **** 
 285:Src/main.c    ****   /* USER CODE END CAN_Init 2 */
 286:Src/main.c    **** 
 287:Src/main.c    **** }
 288:Src/main.c    **** 
 289:Src/main.c    **** /**
 290:Src/main.c    ****   * @brief TIM2 Initialization Function
 291:Src/main.c    ****   * @param None
 292:Src/main.c    ****   * @retval None
 293:Src/main.c    ****   */
 294:Src/main.c    **** static void MX_TIM2_Init(void)
 295:Src/main.c    **** {
 296:Src/main.c    **** 
 297:Src/main.c    ****   /* USER CODE BEGIN TIM2_Init 0 */
 298:Src/main.c    **** 
 299:Src/main.c    ****   /* USER CODE END TIM2_Init 0 */
 300:Src/main.c    **** 
 301:Src/main.c    ****   TIM_ClockConfigTypeDef sClockSourceConfig = {0};
 302:Src/main.c    ****   TIM_MasterConfigTypeDef sMasterConfig = {0};
 303:Src/main.c    ****   TIM_OC_InitTypeDef sConfigOC = {0};
 304:Src/main.c    **** 
 305:Src/main.c    ****   /* USER CODE BEGIN TIM2_Init 1 */
 306:Src/main.c    **** 
 307:Src/main.c    ****   /* USER CODE END TIM2_Init 1 */
 308:Src/main.c    ****   htim2.Instance = TIM2;
 309:Src/main.c    ****   htim2.Init.Prescaler = 719;
 310:Src/main.c    ****   htim2.Init.CounterMode = TIM_COUNTERMODE_UP;
 311:Src/main.c    ****   htim2.Init.Period = 1999;
 312:Src/main.c    ****   htim2.Init.ClockDivision = TIM_CLOCKDIVISION_DIV1;
 313:Src/main.c    ****   htim2.Init.AutoReloadPreload = TIM_AUTORELOAD_PRELOAD_DISABLE;
 314:Src/main.c    ****   if (HAL_TIM_Base_Init(&htim2) != HAL_OK)
 315:Src/main.c    ****   {
 316:Src/main.c    ****     Error_Handler();
 317:Src/main.c    ****   }
 318:Src/main.c    ****   sClockSourceConfig.ClockSource = TIM_CLOCKSOURCE_INTERNAL;
ARM GAS  C:\Users\Administrator.DESKTOP-24M4MSA\AppData\Local\Temp\ccOsfb0b.s 			page 7


 319:Src/main.c    ****   if (HAL_TIM_ConfigClockSource(&htim2, &sClockSourceConfig) != HAL_OK)
 320:Src/main.c    ****   {
 321:Src/main.c    ****     Error_Handler();
 322:Src/main.c    ****   }
 323:Src/main.c    ****   if (HAL_TIM_PWM_Init(&htim2) != HAL_OK)
 324:Src/main.c    ****   {
 325:Src/main.c    ****     Error_Handler();
 326:Src/main.c    ****   }
 327:Src/main.c    ****   sMasterConfig.MasterOutputTrigger = TIM_TRGO_RESET;
 328:Src/main.c    ****   sMasterConfig.MasterSlaveMode = TIM_MASTERSLAVEMODE_DISABLE;
 329:Src/main.c    ****   if (HAL_TIMEx_MasterConfigSynchronization(&htim2, &sMasterConfig) != HAL_OK)
 330:Src/main.c    ****   {
 331:Src/main.c    ****     Error_Handler();
 332:Src/main.c    ****   }
 333:Src/main.c    ****   sConfigOC.OCMode = TIM_OCMODE_PWM1;
 334:Src/main.c    ****   sConfigOC.Pulse = 0;
 335:Src/main.c    ****   sConfigOC.OCPolarity = TIM_OCPOLARITY_HIGH;
 336:Src/main.c    ****   sConfigOC.OCFastMode = TIM_OCFAST_DISABLE;
 337:Src/main.c    ****   if (HAL_TIM_PWM_ConfigChannel(&htim2, &sConfigOC, TIM_CHANNEL_1) != HAL_OK)
 338:Src/main.c    ****   {
 339:Src/main.c    ****     Error_Handler();
 340:Src/main.c    ****   }
 341:Src/main.c    ****   if (HAL_TIM_PWM_ConfigChannel(&htim2, &sConfigOC, TIM_CHANNEL_2) != HAL_OK)
 342:Src/main.c    ****   {
 343:Src/main.c    ****     Error_Handler();
 344:Src/main.c    ****   }
 345:Src/main.c    ****   if (HAL_TIM_PWM_ConfigChannel(&htim2, &sConfigOC, TIM_CHANNEL_3) != HAL_OK)
 346:Src/main.c    ****   {
 347:Src/main.c    ****     Error_Handler();
 348:Src/main.c    ****   }
 349:Src/main.c    ****   if (HAL_TIM_PWM_ConfigChannel(&htim2, &sConfigOC, TIM_CHANNEL_4) != HAL_OK)
 350:Src/main.c    ****   {
 351:Src/main.c    ****     Error_Handler();
 352:Src/main.c    ****   }
 353:Src/main.c    ****   /* USER CODE BEGIN TIM2_Init 2 */
 354:Src/main.c    **** 
 355:Src/main.c    ****   /* USER CODE END TIM2_Init 2 */
 356:Src/main.c    ****   HAL_TIM_MspPostInit(&htim2);
 357:Src/main.c    **** 
 358:Src/main.c    **** }
 359:Src/main.c    **** 
 360:Src/main.c    **** /**
 361:Src/main.c    ****   * @brief TIM3 Initialization Function
 362:Src/main.c    ****   * @param None
 363:Src/main.c    ****   * @retval None
 364:Src/main.c    ****   */
 365:Src/main.c    **** static void MX_TIM3_Init(void)
 366:Src/main.c    **** {
 367:Src/main.c    **** 
 368:Src/main.c    ****   /* USER CODE BEGIN TIM3_Init 0 */
 369:Src/main.c    **** 
 370:Src/main.c    ****   /* USER CODE END TIM3_Init 0 */
 371:Src/main.c    **** 
 372:Src/main.c    ****   TIM_ClockConfigTypeDef sClockSourceConfig = {0};
 373:Src/main.c    ****   TIM_MasterConfigTypeDef sMasterConfig = {0};
 374:Src/main.c    ****   TIM_OC_InitTypeDef sConfigOC = {0};
 375:Src/main.c    **** 
ARM GAS  C:\Users\Administrator.DESKTOP-24M4MSA\AppData\Local\Temp\ccOsfb0b.s 			page 8


 376:Src/main.c    ****   /* USER CODE BEGIN TIM3_Init 1 */
 377:Src/main.c    **** 
 378:Src/main.c    ****   /* USER CODE END TIM3_Init 1 */
 379:Src/main.c    ****   htim3.Instance = TIM3;
 380:Src/main.c    ****   htim3.Init.Prescaler = 719;
 381:Src/main.c    ****   htim3.Init.CounterMode = TIM_COUNTERMODE_UP;
 382:Src/main.c    ****   htim3.Init.Period = 1999;
 383:Src/main.c    ****   htim3.Init.ClockDivision = TIM_CLOCKDIVISION_DIV1;
 384:Src/main.c    ****   htim3.Init.AutoReloadPreload = TIM_AUTORELOAD_PRELOAD_DISABLE;
 385:Src/main.c    ****   if (HAL_TIM_Base_Init(&htim3) != HAL_OK)
 386:Src/main.c    ****   {
 387:Src/main.c    ****     Error_Handler();
 388:Src/main.c    ****   }
 389:Src/main.c    ****   sClockSourceConfig.ClockSource = TIM_CLOCKSOURCE_INTERNAL;
 390:Src/main.c    ****   if (HAL_TIM_ConfigClockSource(&htim3, &sClockSourceConfig) != HAL_OK)
 391:Src/main.c    ****   {
 392:Src/main.c    ****     Error_Handler();
 393:Src/main.c    ****   }
 394:Src/main.c    ****   if (HAL_TIM_PWM_Init(&htim3) != HAL_OK)
 395:Src/main.c    ****   {
 396:Src/main.c    ****     Error_Handler();
 397:Src/main.c    ****   }
 398:Src/main.c    ****   sMasterConfig.MasterOutputTrigger = TIM_TRGO_RESET;
 399:Src/main.c    ****   sMasterConfig.MasterSlaveMode = TIM_MASTERSLAVEMODE_DISABLE;
 400:Src/main.c    ****   if (HAL_TIMEx_MasterConfigSynchronization(&htim3, &sMasterConfig) != HAL_OK)
 401:Src/main.c    ****   {
 402:Src/main.c    ****     Error_Handler();
 403:Src/main.c    ****   }
 404:Src/main.c    ****   sConfigOC.OCMode = TIM_OCMODE_PWM1;
 405:Src/main.c    ****   sConfigOC.Pulse = 0;
 406:Src/main.c    ****   sConfigOC.OCPolarity = TIM_OCPOLARITY_HIGH;
 407:Src/main.c    ****   sConfigOC.OCFastMode = TIM_OCFAST_DISABLE;
 408:Src/main.c    ****   if (HAL_TIM_PWM_ConfigChannel(&htim3, &sConfigOC, TIM_CHANNEL_1) != HAL_OK)
 409:Src/main.c    ****   {
 410:Src/main.c    ****     Error_Handler();
 411:Src/main.c    ****   }
 412:Src/main.c    ****   /* USER CODE BEGIN TIM3_Init 2 */
 413:Src/main.c    **** 
 414:Src/main.c    ****   /* USER CODE END TIM3_Init 2 */
 415:Src/main.c    ****   HAL_TIM_MspPostInit(&htim3);
 416:Src/main.c    **** 
 417:Src/main.c    **** }
 418:Src/main.c    **** 
 419:Src/main.c    **** /**
 420:Src/main.c    ****   * @brief USART1 Initialization Function
 421:Src/main.c    ****   * @param None
 422:Src/main.c    ****   * @retval None
 423:Src/main.c    ****   */
 424:Src/main.c    **** static void MX_USART1_UART_Init(void)
 425:Src/main.c    **** {
 426:Src/main.c    **** 
 427:Src/main.c    ****   /* USER CODE BEGIN USART1_Init 0 */
 428:Src/main.c    **** 
 429:Src/main.c    ****   /* USER CODE END USART1_Init 0 */
 430:Src/main.c    **** 
 431:Src/main.c    ****   /* USER CODE BEGIN USART1_Init 1 */
 432:Src/main.c    **** 
ARM GAS  C:\Users\Administrator.DESKTOP-24M4MSA\AppData\Local\Temp\ccOsfb0b.s 			page 9


 433:Src/main.c    ****   /* USER CODE END USART1_Init 1 */
 434:Src/main.c    ****   huart1.Instance = USART1;
 435:Src/main.c    ****   huart1.Init.BaudRate = 100000;
 436:Src/main.c    ****   huart1.Init.WordLength = UART_WORDLENGTH_8B;
 437:Src/main.c    ****   huart1.Init.StopBits = UART_STOPBITS_1;
 438:Src/main.c    ****   huart1.Init.Parity = UART_PARITY_EVEN;
 439:Src/main.c    ****   huart1.Init.Mode = UART_MODE_TX_RX;
 440:Src/main.c    ****   huart1.Init.HwFlowCtl = UART_HWCONTROL_NONE;
 441:Src/main.c    ****   huart1.Init.OverSampling = UART_OVERSAMPLING_16;
 442:Src/main.c    ****   if (HAL_UART_Init(&huart1) != HAL_OK)
 443:Src/main.c    ****   {
 444:Src/main.c    ****     Error_Handler();
 445:Src/main.c    ****   }
 446:Src/main.c    ****   /* USER CODE BEGIN USART1_Init 2 */
 447:Src/main.c    **** 
 448:Src/main.c    ****   /* USER CODE END USART1_Init 2 */
 449:Src/main.c    **** 
 450:Src/main.c    **** }
 451:Src/main.c    **** 
 452:Src/main.c    **** /**
 453:Src/main.c    ****   * @brief USART2 Initialization Function
 454:Src/main.c    ****   * @param None
 455:Src/main.c    ****   * @retval None
 456:Src/main.c    ****   */
 457:Src/main.c    **** static void MX_USART2_UART_Init(void)
 458:Src/main.c    **** {
 459:Src/main.c    **** 
 460:Src/main.c    ****   /* USER CODE BEGIN USART2_Init 0 */
 461:Src/main.c    **** 
 462:Src/main.c    ****   /* USER CODE END USART2_Init 0 */
 463:Src/main.c    **** 
 464:Src/main.c    ****   /* USER CODE BEGIN USART2_Init 1 */
 465:Src/main.c    **** 
 466:Src/main.c    ****   /* USER CODE END USART2_Init 1 */
 467:Src/main.c    ****   huart2.Instance = USART2;
 468:Src/main.c    ****   huart2.Init.BaudRate = 100000;
 469:Src/main.c    ****   huart2.Init.WordLength = UART_WORDLENGTH_8B;
 470:Src/main.c    ****   huart2.Init.StopBits = UART_STOPBITS_1;
 471:Src/main.c    ****   huart2.Init.Parity = UART_PARITY_EVEN;
 472:Src/main.c    ****   huart2.Init.Mode = UART_MODE_TX_RX;
 473:Src/main.c    ****   huart2.Init.HwFlowCtl = UART_HWCONTROL_NONE;
 474:Src/main.c    ****   huart2.Init.OverSampling = UART_OVERSAMPLING_16;
 475:Src/main.c    ****   if (HAL_UART_Init(&huart2) != HAL_OK)
 476:Src/main.c    ****   {
 477:Src/main.c    ****     Error_Handler();
 478:Src/main.c    ****   }
 479:Src/main.c    ****   /* USER CODE BEGIN USART2_Init 2 */
 480:Src/main.c    **** 
 481:Src/main.c    ****   /* USER CODE END USART2_Init 2 */
 482:Src/main.c    **** 
 483:Src/main.c    **** }
 484:Src/main.c    **** 
 485:Src/main.c    **** /**
 486:Src/main.c    ****   * Enable DMA controller clock
 487:Src/main.c    ****   */
 488:Src/main.c    **** static void MX_DMA_Init(void)
 489:Src/main.c    **** {
ARM GAS  C:\Users\Administrator.DESKTOP-24M4MSA\AppData\Local\Temp\ccOsfb0b.s 			page 10


 490:Src/main.c    **** 
 491:Src/main.c    ****   /* DMA controller clock enable */
 492:Src/main.c    ****   __HAL_RCC_DMA1_CLK_ENABLE();
 493:Src/main.c    **** 
 494:Src/main.c    ****   /* DMA interrupt init */
 495:Src/main.c    ****   /* DMA1_Channel5_IRQn interrupt configuration */
 496:Src/main.c    ****   HAL_NVIC_SetPriority(DMA1_Channel5_IRQn, 0, 0);
 497:Src/main.c    ****   HAL_NVIC_EnableIRQ(DMA1_Channel5_IRQn);
 498:Src/main.c    **** 
 499:Src/main.c    **** }
 500:Src/main.c    **** 
 501:Src/main.c    **** /**
 502:Src/main.c    ****   * @brief GPIO Initialization Function
 503:Src/main.c    ****   * @param None
 504:Src/main.c    ****   * @retval None
 505:Src/main.c    ****   */
 506:Src/main.c    **** static void MX_GPIO_Init(void)
 507:Src/main.c    **** {
  26              		.loc 1 507 1 view -0
  27              		.cfi_startproc
  28              		@ args = 0, pretend = 0, frame = 32
  29              		@ frame_needed = 0, uses_anonymous_args = 0
  30 0000 30B5     		push	{r4, r5, lr}
  31              	.LCFI0:
  32              		.cfi_def_cfa_offset 12
  33              		.cfi_offset 4, -12
  34              		.cfi_offset 5, -8
  35              		.cfi_offset 14, -4
  36 0002 89B0     		sub	sp, sp, #36
  37              	.LCFI1:
  38              		.cfi_def_cfa_offset 48
 508:Src/main.c    ****   GPIO_InitTypeDef GPIO_InitStruct = {0};
  39              		.loc 1 508 3 view .LVU1
  40              		.loc 1 508 20 is_stmt 0 view .LVU2
  41 0004 0024     		movs	r4, #0
  42 0006 0494     		str	r4, [sp, #16]
  43 0008 0594     		str	r4, [sp, #20]
  44 000a 0694     		str	r4, [sp, #24]
  45 000c 0794     		str	r4, [sp, #28]
 509:Src/main.c    **** 
 510:Src/main.c    ****   /* GPIO Ports Clock Enable */
 511:Src/main.c    ****   __HAL_RCC_GPIOC_CLK_ENABLE();
  46              		.loc 1 511 3 is_stmt 1 view .LVU3
  47              	.LBB2:
  48              		.loc 1 511 3 view .LVU4
  49              		.loc 1 511 3 view .LVU5
  50 000e 1C4B     		ldr	r3, .L3
  51 0010 9A69     		ldr	r2, [r3, #24]
  52 0012 42F01002 		orr	r2, r2, #16
  53 0016 9A61     		str	r2, [r3, #24]
  54              		.loc 1 511 3 view .LVU6
  55 0018 9A69     		ldr	r2, [r3, #24]
  56 001a 02F01002 		and	r2, r2, #16
  57 001e 0092     		str	r2, [sp]
  58              		.loc 1 511 3 view .LVU7
  59 0020 009A     		ldr	r2, [sp]
  60              	.LBE2:
ARM GAS  C:\Users\Administrator.DESKTOP-24M4MSA\AppData\Local\Temp\ccOsfb0b.s 			page 11


  61              		.loc 1 511 3 view .LVU8
 512:Src/main.c    ****   __HAL_RCC_GPIOD_CLK_ENABLE();
  62              		.loc 1 512 3 view .LVU9
  63              	.LBB3:
  64              		.loc 1 512 3 view .LVU10
  65              		.loc 1 512 3 view .LVU11
  66 0022 9A69     		ldr	r2, [r3, #24]
  67 0024 42F02002 		orr	r2, r2, #32
  68 0028 9A61     		str	r2, [r3, #24]
  69              		.loc 1 512 3 view .LVU12
  70 002a 9A69     		ldr	r2, [r3, #24]
  71 002c 02F02002 		and	r2, r2, #32
  72 0030 0192     		str	r2, [sp, #4]
  73              		.loc 1 512 3 view .LVU13
  74 0032 019A     		ldr	r2, [sp, #4]
  75              	.LBE3:
  76              		.loc 1 512 3 view .LVU14
 513:Src/main.c    ****   __HAL_RCC_GPIOA_CLK_ENABLE();
  77              		.loc 1 513 3 view .LVU15
  78              	.LBB4:
  79              		.loc 1 513 3 view .LVU16
  80              		.loc 1 513 3 view .LVU17
  81 0034 9A69     		ldr	r2, [r3, #24]
  82 0036 42F00402 		orr	r2, r2, #4
  83 003a 9A61     		str	r2, [r3, #24]
  84              		.loc 1 513 3 view .LVU18
  85 003c 9A69     		ldr	r2, [r3, #24]
  86 003e 02F00402 		and	r2, r2, #4
  87 0042 0292     		str	r2, [sp, #8]
  88              		.loc 1 513 3 view .LVU19
  89 0044 029A     		ldr	r2, [sp, #8]
  90              	.LBE4:
  91              		.loc 1 513 3 view .LVU20
 514:Src/main.c    ****   __HAL_RCC_GPIOB_CLK_ENABLE();
  92              		.loc 1 514 3 view .LVU21
  93              	.LBB5:
  94              		.loc 1 514 3 view .LVU22
  95              		.loc 1 514 3 view .LVU23
  96 0046 9A69     		ldr	r2, [r3, #24]
  97 0048 42F00802 		orr	r2, r2, #8
  98 004c 9A61     		str	r2, [r3, #24]
  99              		.loc 1 514 3 view .LVU24
 100 004e 9B69     		ldr	r3, [r3, #24]
 101 0050 03F00803 		and	r3, r3, #8
 102 0054 0393     		str	r3, [sp, #12]
 103              		.loc 1 514 3 view .LVU25
 104 0056 039B     		ldr	r3, [sp, #12]
 105              	.LBE5:
 106              		.loc 1 514 3 view .LVU26
 515:Src/main.c    **** 
 516:Src/main.c    ****   /*Configure GPIO pin Output Level */
 517:Src/main.c    ****   HAL_GPIO_WritePin(LED_GPIO_Port, LED_Pin, GPIO_PIN_RESET);
 107              		.loc 1 517 3 view .LVU27
 108 0058 0A4D     		ldr	r5, .L3+4
 109 005a 2246     		mov	r2, r4
 110 005c 4FF40051 		mov	r1, #8192
 111 0060 2846     		mov	r0, r5
ARM GAS  C:\Users\Administrator.DESKTOP-24M4MSA\AppData\Local\Temp\ccOsfb0b.s 			page 12


 112 0062 FFF7FEFF 		bl	HAL_GPIO_WritePin
 113              	.LVL0:
 518:Src/main.c    **** 
 519:Src/main.c    ****   /*Configure GPIO pin : LED_Pin */
 520:Src/main.c    ****   GPIO_InitStruct.Pin = LED_Pin;
 114              		.loc 1 520 3 view .LVU28
 115              		.loc 1 520 23 is_stmt 0 view .LVU29
 116 0066 4FF40053 		mov	r3, #8192
 117 006a 0493     		str	r3, [sp, #16]
 521:Src/main.c    ****   GPIO_InitStruct.Mode = GPIO_MODE_OUTPUT_PP;
 118              		.loc 1 521 3 is_stmt 1 view .LVU30
 119              		.loc 1 521 24 is_stmt 0 view .LVU31
 120 006c 0123     		movs	r3, #1
 121 006e 0593     		str	r3, [sp, #20]
 522:Src/main.c    ****   GPIO_InitStruct.Pull = GPIO_NOPULL;
 122              		.loc 1 522 3 is_stmt 1 view .LVU32
 123              		.loc 1 522 24 is_stmt 0 view .LVU33
 124 0070 0694     		str	r4, [sp, #24]
 523:Src/main.c    ****   GPIO_InitStruct.Speed = GPIO_SPEED_FREQ_MEDIUM;
 125              		.loc 1 523 3 is_stmt 1 view .LVU34
 126              		.loc 1 523 25 is_stmt 0 view .LVU35
 127 0072 0793     		str	r3, [sp, #28]
 524:Src/main.c    ****   HAL_GPIO_Init(LED_GPIO_Port, &GPIO_InitStruct);
 128              		.loc 1 524 3 is_stmt 1 view .LVU36
 129 0074 04A9     		add	r1, sp, #16
 130 0076 2846     		mov	r0, r5
 131 0078 FFF7FEFF 		bl	HAL_GPIO_Init
 132              	.LVL1:
 525:Src/main.c    **** 
 526:Src/main.c    **** }
 133              		.loc 1 526 1 is_stmt 0 view .LVU37
 134 007c 09B0     		add	sp, sp, #36
 135              	.LCFI2:
 136              		.cfi_def_cfa_offset 12
 137              		@ sp needed
 138 007e 30BD     		pop	{r4, r5, pc}
 139              	.L4:
 140              		.align	2
 141              	.L3:
 142 0080 00100240 		.word	1073876992
 143 0084 00100140 		.word	1073811456
 144              		.cfi_endproc
 145              	.LFE73:
 147              		.section	.text.MX_USART2_UART_Init,"ax",%progbits
 148              		.align	1
 149              		.syntax unified
 150              		.thumb
 151              		.thumb_func
 152              		.fpu softvfp
 154              	MX_USART2_UART_Init:
 155              	.LFB71:
 458:Src/main.c    **** 
 156              		.loc 1 458 1 is_stmt 1 view -0
 157              		.cfi_startproc
 158              		@ args = 0, pretend = 0, frame = 0
 159              		@ frame_needed = 0, uses_anonymous_args = 0
 160 0000 08B5     		push	{r3, lr}
ARM GAS  C:\Users\Administrator.DESKTOP-24M4MSA\AppData\Local\Temp\ccOsfb0b.s 			page 13


 161              	.LCFI3:
 162              		.cfi_def_cfa_offset 8
 163              		.cfi_offset 3, -8
 164              		.cfi_offset 14, -4
 467:Src/main.c    ****   huart2.Init.BaudRate = 100000;
 165              		.loc 1 467 3 view .LVU39
 467:Src/main.c    ****   huart2.Init.BaudRate = 100000;
 166              		.loc 1 467 19 is_stmt 0 view .LVU40
 167 0002 0948     		ldr	r0, .L7
 168 0004 094B     		ldr	r3, .L7+4
 169 0006 0360     		str	r3, [r0]
 468:Src/main.c    ****   huart2.Init.WordLength = UART_WORDLENGTH_8B;
 170              		.loc 1 468 3 is_stmt 1 view .LVU41
 468:Src/main.c    ****   huart2.Init.WordLength = UART_WORDLENGTH_8B;
 171              		.loc 1 468 24 is_stmt 0 view .LVU42
 172 0008 094B     		ldr	r3, .L7+8
 173 000a 4360     		str	r3, [r0, #4]
 469:Src/main.c    ****   huart2.Init.StopBits = UART_STOPBITS_1;
 174              		.loc 1 469 3 is_stmt 1 view .LVU43
 469:Src/main.c    ****   huart2.Init.StopBits = UART_STOPBITS_1;
 175              		.loc 1 469 26 is_stmt 0 view .LVU44
 176 000c 0023     		movs	r3, #0
 177 000e 8360     		str	r3, [r0, #8]
 470:Src/main.c    ****   huart2.Init.Parity = UART_PARITY_EVEN;
 178              		.loc 1 470 3 is_stmt 1 view .LVU45
 470:Src/main.c    ****   huart2.Init.Parity = UART_PARITY_EVEN;
 179              		.loc 1 470 24 is_stmt 0 view .LVU46
 180 0010 C360     		str	r3, [r0, #12]
 471:Src/main.c    ****   huart2.Init.Mode = UART_MODE_TX_RX;
 181              		.loc 1 471 3 is_stmt 1 view .LVU47
 471:Src/main.c    ****   huart2.Init.Mode = UART_MODE_TX_RX;
 182              		.loc 1 471 22 is_stmt 0 view .LVU48
 183 0012 4FF48062 		mov	r2, #1024
 184 0016 0261     		str	r2, [r0, #16]
 472:Src/main.c    ****   huart2.Init.HwFlowCtl = UART_HWCONTROL_NONE;
 185              		.loc 1 472 3 is_stmt 1 view .LVU49
 472:Src/main.c    ****   huart2.Init.HwFlowCtl = UART_HWCONTROL_NONE;
 186              		.loc 1 472 20 is_stmt 0 view .LVU50
 187 0018 0C22     		movs	r2, #12
 188 001a 4261     		str	r2, [r0, #20]
 473:Src/main.c    ****   huart2.Init.OverSampling = UART_OVERSAMPLING_16;
 189              		.loc 1 473 3 is_stmt 1 view .LVU51
 473:Src/main.c    ****   huart2.Init.OverSampling = UART_OVERSAMPLING_16;
 190              		.loc 1 473 25 is_stmt 0 view .LVU52
 191 001c 8361     		str	r3, [r0, #24]
 474:Src/main.c    ****   if (HAL_UART_Init(&huart2) != HAL_OK)
 192              		.loc 1 474 3 is_stmt 1 view .LVU53
 474:Src/main.c    ****   if (HAL_UART_Init(&huart2) != HAL_OK)
 193              		.loc 1 474 28 is_stmt 0 view .LVU54
 194 001e C361     		str	r3, [r0, #28]
 475:Src/main.c    ****   {
 195              		.loc 1 475 3 is_stmt 1 view .LVU55
 475:Src/main.c    ****   {
 196              		.loc 1 475 7 is_stmt 0 view .LVU56
 197 0020 FFF7FEFF 		bl	HAL_UART_Init
 198              	.LVL2:
 483:Src/main.c    **** 
ARM GAS  C:\Users\Administrator.DESKTOP-24M4MSA\AppData\Local\Temp\ccOsfb0b.s 			page 14


 199              		.loc 1 483 1 view .LVU57
 200 0024 08BD     		pop	{r3, pc}
 201              	.L8:
 202 0026 00BF     		.align	2
 203              	.L7:
 204 0028 00000000 		.word	.LANCHOR0
 205 002c 00440040 		.word	1073759232
 206 0030 A0860100 		.word	100000
 207              		.cfi_endproc
 208              	.LFE71:
 210              		.section	.text.MX_USART1_UART_Init,"ax",%progbits
 211              		.align	1
 212              		.syntax unified
 213              		.thumb
 214              		.thumb_func
 215              		.fpu softvfp
 217              	MX_USART1_UART_Init:
 218              	.LFB70:
 425:Src/main.c    **** 
 219              		.loc 1 425 1 is_stmt 1 view -0
 220              		.cfi_startproc
 221              		@ args = 0, pretend = 0, frame = 0
 222              		@ frame_needed = 0, uses_anonymous_args = 0
 223 0000 08B5     		push	{r3, lr}
 224              	.LCFI4:
 225              		.cfi_def_cfa_offset 8
 226              		.cfi_offset 3, -8
 227              		.cfi_offset 14, -4
 434:Src/main.c    ****   huart1.Init.BaudRate = 100000;
 228              		.loc 1 434 3 view .LVU59
 434:Src/main.c    ****   huart1.Init.BaudRate = 100000;
 229              		.loc 1 434 19 is_stmt 0 view .LVU60
 230 0002 0948     		ldr	r0, .L11
 231 0004 094B     		ldr	r3, .L11+4
 232 0006 0360     		str	r3, [r0]
 435:Src/main.c    ****   huart1.Init.WordLength = UART_WORDLENGTH_8B;
 233              		.loc 1 435 3 is_stmt 1 view .LVU61
 435:Src/main.c    ****   huart1.Init.WordLength = UART_WORDLENGTH_8B;
 234              		.loc 1 435 24 is_stmt 0 view .LVU62
 235 0008 094B     		ldr	r3, .L11+8
 236 000a 4360     		str	r3, [r0, #4]
 436:Src/main.c    ****   huart1.Init.StopBits = UART_STOPBITS_1;
 237              		.loc 1 436 3 is_stmt 1 view .LVU63
 436:Src/main.c    ****   huart1.Init.StopBits = UART_STOPBITS_1;
 238              		.loc 1 436 26 is_stmt 0 view .LVU64
 239 000c 0023     		movs	r3, #0
 240 000e 8360     		str	r3, [r0, #8]
 437:Src/main.c    ****   huart1.Init.Parity = UART_PARITY_EVEN;
 241              		.loc 1 437 3 is_stmt 1 view .LVU65
 437:Src/main.c    ****   huart1.Init.Parity = UART_PARITY_EVEN;
 242              		.loc 1 437 24 is_stmt 0 view .LVU66
 243 0010 C360     		str	r3, [r0, #12]
 438:Src/main.c    ****   huart1.Init.Mode = UART_MODE_TX_RX;
 244              		.loc 1 438 3 is_stmt 1 view .LVU67
 438:Src/main.c    ****   huart1.Init.Mode = UART_MODE_TX_RX;
 245              		.loc 1 438 22 is_stmt 0 view .LVU68
 246 0012 4FF48062 		mov	r2, #1024
ARM GAS  C:\Users\Administrator.DESKTOP-24M4MSA\AppData\Local\Temp\ccOsfb0b.s 			page 15


 247 0016 0261     		str	r2, [r0, #16]
 439:Src/main.c    ****   huart1.Init.HwFlowCtl = UART_HWCONTROL_NONE;
 248              		.loc 1 439 3 is_stmt 1 view .LVU69
 439:Src/main.c    ****   huart1.Init.HwFlowCtl = UART_HWCONTROL_NONE;
 249              		.loc 1 439 20 is_stmt 0 view .LVU70
 250 0018 0C22     		movs	r2, #12
 251 001a 4261     		str	r2, [r0, #20]
 440:Src/main.c    ****   huart1.Init.OverSampling = UART_OVERSAMPLING_16;
 252              		.loc 1 440 3 is_stmt 1 view .LVU71
 440:Src/main.c    ****   huart1.Init.OverSampling = UART_OVERSAMPLING_16;
 253              		.loc 1 440 25 is_stmt 0 view .LVU72
 254 001c 8361     		str	r3, [r0, #24]
 441:Src/main.c    ****   if (HAL_UART_Init(&huart1) != HAL_OK)
 255              		.loc 1 441 3 is_stmt 1 view .LVU73
 441:Src/main.c    ****   if (HAL_UART_Init(&huart1) != HAL_OK)
 256              		.loc 1 441 28 is_stmt 0 view .LVU74
 257 001e C361     		str	r3, [r0, #28]
 442:Src/main.c    ****   {
 258              		.loc 1 442 3 is_stmt 1 view .LVU75
 442:Src/main.c    ****   {
 259              		.loc 1 442 7 is_stmt 0 view .LVU76
 260 0020 FFF7FEFF 		bl	HAL_UART_Init
 261              	.LVL3:
 450:Src/main.c    **** 
 262              		.loc 1 450 1 view .LVU77
 263 0024 08BD     		pop	{r3, pc}
 264              	.L12:
 265 0026 00BF     		.align	2
 266              	.L11:
 267 0028 00000000 		.word	.LANCHOR1
 268 002c 00380140 		.word	1073821696
 269 0030 A0860100 		.word	100000
 270              		.cfi_endproc
 271              	.LFE70:
 273              		.section	.text.MX_DMA_Init,"ax",%progbits
 274              		.align	1
 275              		.syntax unified
 276              		.thumb
 277              		.thumb_func
 278              		.fpu softvfp
 280              	MX_DMA_Init:
 281              	.LFB72:
 489:Src/main.c    **** 
 282              		.loc 1 489 1 is_stmt 1 view -0
 283              		.cfi_startproc
 284              		@ args = 0, pretend = 0, frame = 8
 285              		@ frame_needed = 0, uses_anonymous_args = 0
 286 0000 00B5     		push	{lr}
 287              	.LCFI5:
 288              		.cfi_def_cfa_offset 4
 289              		.cfi_offset 14, -4
 290 0002 83B0     		sub	sp, sp, #12
 291              	.LCFI6:
 292              		.cfi_def_cfa_offset 16
 492:Src/main.c    **** 
 293              		.loc 1 492 3 view .LVU79
 294              	.LBB6:
ARM GAS  C:\Users\Administrator.DESKTOP-24M4MSA\AppData\Local\Temp\ccOsfb0b.s 			page 16


 492:Src/main.c    **** 
 295              		.loc 1 492 3 view .LVU80
 492:Src/main.c    **** 
 296              		.loc 1 492 3 view .LVU81
 297 0004 0A4B     		ldr	r3, .L15
 298 0006 5A69     		ldr	r2, [r3, #20]
 299 0008 42F00102 		orr	r2, r2, #1
 300 000c 5A61     		str	r2, [r3, #20]
 492:Src/main.c    **** 
 301              		.loc 1 492 3 view .LVU82
 302 000e 5B69     		ldr	r3, [r3, #20]
 303 0010 03F00103 		and	r3, r3, #1
 304 0014 0193     		str	r3, [sp, #4]
 492:Src/main.c    **** 
 305              		.loc 1 492 3 view .LVU83
 306 0016 019B     		ldr	r3, [sp, #4]
 307              	.LBE6:
 492:Src/main.c    **** 
 308              		.loc 1 492 3 view .LVU84
 496:Src/main.c    ****   HAL_NVIC_EnableIRQ(DMA1_Channel5_IRQn);
 309              		.loc 1 496 3 view .LVU85
 310 0018 0022     		movs	r2, #0
 311 001a 1146     		mov	r1, r2
 312 001c 0F20     		movs	r0, #15
 313 001e FFF7FEFF 		bl	HAL_NVIC_SetPriority
 314              	.LVL4:
 497:Src/main.c    **** 
 315              		.loc 1 497 3 view .LVU86
 316 0022 0F20     		movs	r0, #15
 317 0024 FFF7FEFF 		bl	HAL_NVIC_EnableIRQ
 318              	.LVL5:
 499:Src/main.c    **** 
 319              		.loc 1 499 1 is_stmt 0 view .LVU87
 320 0028 03B0     		add	sp, sp, #12
 321              	.LCFI7:
 322              		.cfi_def_cfa_offset 4
 323              		@ sp needed
 324 002a 5DF804FB 		ldr	pc, [sp], #4
 325              	.L16:
 326 002e 00BF     		.align	2
 327              	.L15:
 328 0030 00100240 		.word	1073876992
 329              		.cfi_endproc
 330              	.LFE72:
 332              		.section	.text.MX_CAN_Init,"ax",%progbits
 333              		.align	1
 334              		.syntax unified
 335              		.thumb
 336              		.thumb_func
 337              		.fpu softvfp
 339              	MX_CAN_Init:
 340              	.LFB67:
 258:Src/main.c    **** 
 341              		.loc 1 258 1 is_stmt 1 view -0
 342              		.cfi_startproc
 343              		@ args = 0, pretend = 0, frame = 0
 344              		@ frame_needed = 0, uses_anonymous_args = 0
ARM GAS  C:\Users\Administrator.DESKTOP-24M4MSA\AppData\Local\Temp\ccOsfb0b.s 			page 17


 345 0000 08B5     		push	{r3, lr}
 346              	.LCFI8:
 347              		.cfi_def_cfa_offset 8
 348              		.cfi_offset 3, -8
 349              		.cfi_offset 14, -4
 267:Src/main.c    ****   hcan.Init.Prescaler = 4;
 350              		.loc 1 267 3 view .LVU89
 267:Src/main.c    ****   hcan.Init.Prescaler = 4;
 351              		.loc 1 267 17 is_stmt 0 view .LVU90
 352 0002 0B48     		ldr	r0, .L19
 353 0004 0B4B     		ldr	r3, .L19+4
 354 0006 0360     		str	r3, [r0]
 268:Src/main.c    ****   hcan.Init.Mode = CAN_MODE_NORMAL;
 355              		.loc 1 268 3 is_stmt 1 view .LVU91
 268:Src/main.c    ****   hcan.Init.Mode = CAN_MODE_NORMAL;
 356              		.loc 1 268 23 is_stmt 0 view .LVU92
 357 0008 0423     		movs	r3, #4
 358 000a 4360     		str	r3, [r0, #4]
 269:Src/main.c    ****   hcan.Init.SyncJumpWidth = CAN_SJW_1TQ;
 359              		.loc 1 269 3 is_stmt 1 view .LVU93
 269:Src/main.c    ****   hcan.Init.SyncJumpWidth = CAN_SJW_1TQ;
 360              		.loc 1 269 18 is_stmt 0 view .LVU94
 361 000c 0023     		movs	r3, #0
 362 000e 8360     		str	r3, [r0, #8]
 270:Src/main.c    ****   hcan.Init.TimeSeg1 = CAN_BS1_6TQ;
 363              		.loc 1 270 3 is_stmt 1 view .LVU95
 270:Src/main.c    ****   hcan.Init.TimeSeg1 = CAN_BS1_6TQ;
 364              		.loc 1 270 27 is_stmt 0 view .LVU96
 365 0010 C360     		str	r3, [r0, #12]
 271:Src/main.c    ****   hcan.Init.TimeSeg2 = CAN_BS2_2TQ;
 366              		.loc 1 271 3 is_stmt 1 view .LVU97
 271:Src/main.c    ****   hcan.Init.TimeSeg2 = CAN_BS2_2TQ;
 367              		.loc 1 271 22 is_stmt 0 view .LVU98
 368 0012 4FF4A022 		mov	r2, #327680
 369 0016 0261     		str	r2, [r0, #16]
 272:Src/main.c    ****   hcan.Init.TimeTriggeredMode = DISABLE;
 370              		.loc 1 272 3 is_stmt 1 view .LVU99
 272:Src/main.c    ****   hcan.Init.TimeTriggeredMode = DISABLE;
 371              		.loc 1 272 22 is_stmt 0 view .LVU100
 372 0018 4FF48012 		mov	r2, #1048576
 373 001c 4261     		str	r2, [r0, #20]
 273:Src/main.c    ****   hcan.Init.AutoBusOff = DISABLE;
 374              		.loc 1 273 3 is_stmt 1 view .LVU101
 273:Src/main.c    ****   hcan.Init.AutoBusOff = DISABLE;
 375              		.loc 1 273 31 is_stmt 0 view .LVU102
 376 001e 0376     		strb	r3, [r0, #24]
 274:Src/main.c    ****   hcan.Init.AutoWakeUp = DISABLE;
 377              		.loc 1 274 3 is_stmt 1 view .LVU103
 274:Src/main.c    ****   hcan.Init.AutoWakeUp = DISABLE;
 378              		.loc 1 274 24 is_stmt 0 view .LVU104
 379 0020 4376     		strb	r3, [r0, #25]
 275:Src/main.c    ****   hcan.Init.AutoRetransmission = DISABLE;
 380              		.loc 1 275 3 is_stmt 1 view .LVU105
 275:Src/main.c    ****   hcan.Init.AutoRetransmission = DISABLE;
 381              		.loc 1 275 24 is_stmt 0 view .LVU106
 382 0022 8376     		strb	r3, [r0, #26]
 276:Src/main.c    ****   hcan.Init.ReceiveFifoLocked = DISABLE;
ARM GAS  C:\Users\Administrator.DESKTOP-24M4MSA\AppData\Local\Temp\ccOsfb0b.s 			page 18


 383              		.loc 1 276 3 is_stmt 1 view .LVU107
 276:Src/main.c    ****   hcan.Init.ReceiveFifoLocked = DISABLE;
 384              		.loc 1 276 32 is_stmt 0 view .LVU108
 385 0024 C376     		strb	r3, [r0, #27]
 277:Src/main.c    ****   hcan.Init.TransmitFifoPriority = DISABLE;
 386              		.loc 1 277 3 is_stmt 1 view .LVU109
 277:Src/main.c    ****   hcan.Init.TransmitFifoPriority = DISABLE;
 387              		.loc 1 277 31 is_stmt 0 view .LVU110
 388 0026 0377     		strb	r3, [r0, #28]
 278:Src/main.c    ****   if (HAL_CAN_Init(&hcan) != HAL_OK)
 389              		.loc 1 278 3 is_stmt 1 view .LVU111
 278:Src/main.c    ****   if (HAL_CAN_Init(&hcan) != HAL_OK)
 390              		.loc 1 278 34 is_stmt 0 view .LVU112
 391 0028 4377     		strb	r3, [r0, #29]
 279:Src/main.c    ****   {
 392              		.loc 1 279 3 is_stmt 1 view .LVU113
 279:Src/main.c    ****   {
 393              		.loc 1 279 7 is_stmt 0 view .LVU114
 394 002a FFF7FEFF 		bl	HAL_CAN_Init
 395              	.LVL6:
 287:Src/main.c    **** 
 396              		.loc 1 287 1 view .LVU115
 397 002e 08BD     		pop	{r3, pc}
 398              	.L20:
 399              		.align	2
 400              	.L19:
 401 0030 00000000 		.word	.LANCHOR2
 402 0034 00640040 		.word	1073767424
 403              		.cfi_endproc
 404              	.LFE67:
 406              		.section	.text.MX_TIM2_Init,"ax",%progbits
 407              		.align	1
 408              		.syntax unified
 409              		.thumb
 410              		.thumb_func
 411              		.fpu softvfp
 413              	MX_TIM2_Init:
 414              	.LFB68:
 295:Src/main.c    **** 
 415              		.loc 1 295 1 is_stmt 1 view -0
 416              		.cfi_startproc
 417              		@ args = 0, pretend = 0, frame = 56
 418              		@ frame_needed = 0, uses_anonymous_args = 0
 419 0000 30B5     		push	{r4, r5, lr}
 420              	.LCFI9:
 421              		.cfi_def_cfa_offset 12
 422              		.cfi_offset 4, -12
 423              		.cfi_offset 5, -8
 424              		.cfi_offset 14, -4
 425 0002 8FB0     		sub	sp, sp, #60
 426              	.LCFI10:
 427              		.cfi_def_cfa_offset 72
 301:Src/main.c    ****   TIM_MasterConfigTypeDef sMasterConfig = {0};
 428              		.loc 1 301 3 view .LVU117
 301:Src/main.c    ****   TIM_MasterConfigTypeDef sMasterConfig = {0};
 429              		.loc 1 301 26 is_stmt 0 view .LVU118
 430 0004 0024     		movs	r4, #0
ARM GAS  C:\Users\Administrator.DESKTOP-24M4MSA\AppData\Local\Temp\ccOsfb0b.s 			page 19


 431 0006 0A94     		str	r4, [sp, #40]
 432 0008 0B94     		str	r4, [sp, #44]
 433 000a 0C94     		str	r4, [sp, #48]
 434 000c 0D94     		str	r4, [sp, #52]
 302:Src/main.c    ****   TIM_OC_InitTypeDef sConfigOC = {0};
 435              		.loc 1 302 3 is_stmt 1 view .LVU119
 302:Src/main.c    ****   TIM_OC_InitTypeDef sConfigOC = {0};
 436              		.loc 1 302 27 is_stmt 0 view .LVU120
 437 000e 0894     		str	r4, [sp, #32]
 438 0010 0994     		str	r4, [sp, #36]
 303:Src/main.c    **** 
 439              		.loc 1 303 3 is_stmt 1 view .LVU121
 303:Src/main.c    **** 
 440              		.loc 1 303 22 is_stmt 0 view .LVU122
 441 0012 0194     		str	r4, [sp, #4]
 442 0014 0294     		str	r4, [sp, #8]
 443 0016 0394     		str	r4, [sp, #12]
 444 0018 0494     		str	r4, [sp, #16]
 445 001a 0594     		str	r4, [sp, #20]
 446 001c 0694     		str	r4, [sp, #24]
 447 001e 0794     		str	r4, [sp, #28]
 308:Src/main.c    ****   htim2.Init.Prescaler = 719;
 448              		.loc 1 308 3 is_stmt 1 view .LVU123
 308:Src/main.c    ****   htim2.Init.Prescaler = 719;
 449              		.loc 1 308 18 is_stmt 0 view .LVU124
 450 0020 1F4D     		ldr	r5, .L23
 451 0022 4FF08043 		mov	r3, #1073741824
 452 0026 2B60     		str	r3, [r5]
 309:Src/main.c    ****   htim2.Init.CounterMode = TIM_COUNTERMODE_UP;
 453              		.loc 1 309 3 is_stmt 1 view .LVU125
 309:Src/main.c    ****   htim2.Init.CounterMode = TIM_COUNTERMODE_UP;
 454              		.loc 1 309 24 is_stmt 0 view .LVU126
 455 0028 40F2CF23 		movw	r3, #719
 456 002c 6B60     		str	r3, [r5, #4]
 310:Src/main.c    ****   htim2.Init.Period = 1999;
 457              		.loc 1 310 3 is_stmt 1 view .LVU127
 310:Src/main.c    ****   htim2.Init.Period = 1999;
 458              		.loc 1 310 26 is_stmt 0 view .LVU128
 459 002e AC60     		str	r4, [r5, #8]
 311:Src/main.c    ****   htim2.Init.ClockDivision = TIM_CLOCKDIVISION_DIV1;
 460              		.loc 1 311 3 is_stmt 1 view .LVU129
 311:Src/main.c    ****   htim2.Init.ClockDivision = TIM_CLOCKDIVISION_DIV1;
 461              		.loc 1 311 21 is_stmt 0 view .LVU130
 462 0030 40F2CF73 		movw	r3, #1999
 463 0034 EB60     		str	r3, [r5, #12]
 312:Src/main.c    ****   htim2.Init.AutoReloadPreload = TIM_AUTORELOAD_PRELOAD_DISABLE;
 464              		.loc 1 312 3 is_stmt 1 view .LVU131
 312:Src/main.c    ****   htim2.Init.AutoReloadPreload = TIM_AUTORELOAD_PRELOAD_DISABLE;
 465              		.loc 1 312 28 is_stmt 0 view .LVU132
 466 0036 2C61     		str	r4, [r5, #16]
 313:Src/main.c    ****   if (HAL_TIM_Base_Init(&htim2) != HAL_OK)
 467              		.loc 1 313 3 is_stmt 1 view .LVU133
 313:Src/main.c    ****   if (HAL_TIM_Base_Init(&htim2) != HAL_OK)
 468              		.loc 1 313 32 is_stmt 0 view .LVU134
 469 0038 AC61     		str	r4, [r5, #24]
 314:Src/main.c    ****   {
 470              		.loc 1 314 3 is_stmt 1 view .LVU135
ARM GAS  C:\Users\Administrator.DESKTOP-24M4MSA\AppData\Local\Temp\ccOsfb0b.s 			page 20


 314:Src/main.c    ****   {
 471              		.loc 1 314 7 is_stmt 0 view .LVU136
 472 003a 2846     		mov	r0, r5
 473 003c FFF7FEFF 		bl	HAL_TIM_Base_Init
 474              	.LVL7:
 318:Src/main.c    ****   if (HAL_TIM_ConfigClockSource(&htim2, &sClockSourceConfig) != HAL_OK)
 475              		.loc 1 318 3 is_stmt 1 view .LVU137
 318:Src/main.c    ****   if (HAL_TIM_ConfigClockSource(&htim2, &sClockSourceConfig) != HAL_OK)
 476              		.loc 1 318 34 is_stmt 0 view .LVU138
 477 0040 4FF48053 		mov	r3, #4096
 478 0044 0A93     		str	r3, [sp, #40]
 319:Src/main.c    ****   {
 479              		.loc 1 319 3 is_stmt 1 view .LVU139
 319:Src/main.c    ****   {
 480              		.loc 1 319 7 is_stmt 0 view .LVU140
 481 0046 0AA9     		add	r1, sp, #40
 482 0048 2846     		mov	r0, r5
 483 004a FFF7FEFF 		bl	HAL_TIM_ConfigClockSource
 484              	.LVL8:
 323:Src/main.c    ****   {
 485              		.loc 1 323 3 is_stmt 1 view .LVU141
 323:Src/main.c    ****   {
 486              		.loc 1 323 7 is_stmt 0 view .LVU142
 487 004e 2846     		mov	r0, r5
 488 0050 FFF7FEFF 		bl	HAL_TIM_PWM_Init
 489              	.LVL9:
 327:Src/main.c    ****   sMasterConfig.MasterSlaveMode = TIM_MASTERSLAVEMODE_DISABLE;
 490              		.loc 1 327 3 is_stmt 1 view .LVU143
 327:Src/main.c    ****   sMasterConfig.MasterSlaveMode = TIM_MASTERSLAVEMODE_DISABLE;
 491              		.loc 1 327 37 is_stmt 0 view .LVU144
 492 0054 0894     		str	r4, [sp, #32]
 328:Src/main.c    ****   if (HAL_TIMEx_MasterConfigSynchronization(&htim2, &sMasterConfig) != HAL_OK)
 493              		.loc 1 328 3 is_stmt 1 view .LVU145
 328:Src/main.c    ****   if (HAL_TIMEx_MasterConfigSynchronization(&htim2, &sMasterConfig) != HAL_OK)
 494              		.loc 1 328 33 is_stmt 0 view .LVU146
 495 0056 0994     		str	r4, [sp, #36]
 329:Src/main.c    ****   {
 496              		.loc 1 329 3 is_stmt 1 view .LVU147
 329:Src/main.c    ****   {
 497              		.loc 1 329 7 is_stmt 0 view .LVU148
 498 0058 08A9     		add	r1, sp, #32
 499 005a 2846     		mov	r0, r5
 500 005c FFF7FEFF 		bl	HAL_TIMEx_MasterConfigSynchronization
 501              	.LVL10:
 333:Src/main.c    ****   sConfigOC.Pulse = 0;
 502              		.loc 1 333 3 is_stmt 1 view .LVU149
 333:Src/main.c    ****   sConfigOC.Pulse = 0;
 503              		.loc 1 333 20 is_stmt 0 view .LVU150
 504 0060 6023     		movs	r3, #96
 505 0062 0193     		str	r3, [sp, #4]
 334:Src/main.c    ****   sConfigOC.OCPolarity = TIM_OCPOLARITY_HIGH;
 506              		.loc 1 334 3 is_stmt 1 view .LVU151
 334:Src/main.c    ****   sConfigOC.OCPolarity = TIM_OCPOLARITY_HIGH;
 507              		.loc 1 334 19 is_stmt 0 view .LVU152
 508 0064 0294     		str	r4, [sp, #8]
 335:Src/main.c    ****   sConfigOC.OCFastMode = TIM_OCFAST_DISABLE;
 509              		.loc 1 335 3 is_stmt 1 view .LVU153
ARM GAS  C:\Users\Administrator.DESKTOP-24M4MSA\AppData\Local\Temp\ccOsfb0b.s 			page 21


 335:Src/main.c    ****   sConfigOC.OCFastMode = TIM_OCFAST_DISABLE;
 510              		.loc 1 335 24 is_stmt 0 view .LVU154
 511 0066 0394     		str	r4, [sp, #12]
 336:Src/main.c    ****   if (HAL_TIM_PWM_ConfigChannel(&htim2, &sConfigOC, TIM_CHANNEL_1) != HAL_OK)
 512              		.loc 1 336 3 is_stmt 1 view .LVU155
 336:Src/main.c    ****   if (HAL_TIM_PWM_ConfigChannel(&htim2, &sConfigOC, TIM_CHANNEL_1) != HAL_OK)
 513              		.loc 1 336 24 is_stmt 0 view .LVU156
 514 0068 0594     		str	r4, [sp, #20]
 337:Src/main.c    ****   {
 515              		.loc 1 337 3 is_stmt 1 view .LVU157
 337:Src/main.c    ****   {
 516              		.loc 1 337 7 is_stmt 0 view .LVU158
 517 006a 2246     		mov	r2, r4
 518 006c 01A9     		add	r1, sp, #4
 519 006e 2846     		mov	r0, r5
 520 0070 FFF7FEFF 		bl	HAL_TIM_PWM_ConfigChannel
 521              	.LVL11:
 341:Src/main.c    ****   {
 522              		.loc 1 341 3 is_stmt 1 view .LVU159
 341:Src/main.c    ****   {
 523              		.loc 1 341 7 is_stmt 0 view .LVU160
 524 0074 0422     		movs	r2, #4
 525 0076 0DEB0201 		add	r1, sp, r2
 526 007a 2846     		mov	r0, r5
 527 007c FFF7FEFF 		bl	HAL_TIM_PWM_ConfigChannel
 528              	.LVL12:
 345:Src/main.c    ****   {
 529              		.loc 1 345 3 is_stmt 1 view .LVU161
 345:Src/main.c    ****   {
 530              		.loc 1 345 7 is_stmt 0 view .LVU162
 531 0080 0822     		movs	r2, #8
 532 0082 01A9     		add	r1, sp, #4
 533 0084 2846     		mov	r0, r5
 534 0086 FFF7FEFF 		bl	HAL_TIM_PWM_ConfigChannel
 535              	.LVL13:
 349:Src/main.c    ****   {
 536              		.loc 1 349 3 is_stmt 1 view .LVU163
 349:Src/main.c    ****   {
 537              		.loc 1 349 7 is_stmt 0 view .LVU164
 538 008a 0C22     		movs	r2, #12
 539 008c 01A9     		add	r1, sp, #4
 540 008e 2846     		mov	r0, r5
 541 0090 FFF7FEFF 		bl	HAL_TIM_PWM_ConfigChannel
 542              	.LVL14:
 356:Src/main.c    **** 
 543              		.loc 1 356 3 is_stmt 1 view .LVU165
 544 0094 2846     		mov	r0, r5
 545 0096 FFF7FEFF 		bl	HAL_TIM_MspPostInit
 546              	.LVL15:
 358:Src/main.c    **** 
 547              		.loc 1 358 1 is_stmt 0 view .LVU166
 548 009a 0FB0     		add	sp, sp, #60
 549              	.LCFI11:
 550              		.cfi_def_cfa_offset 12
 551              		@ sp needed
 552 009c 30BD     		pop	{r4, r5, pc}
 553              	.L24:
ARM GAS  C:\Users\Administrator.DESKTOP-24M4MSA\AppData\Local\Temp\ccOsfb0b.s 			page 22


 554 009e 00BF     		.align	2
 555              	.L23:
 556 00a0 00000000 		.word	.LANCHOR3
 557              		.cfi_endproc
 558              	.LFE68:
 560              		.section	.text.MX_TIM3_Init,"ax",%progbits
 561              		.align	1
 562              		.syntax unified
 563              		.thumb
 564              		.thumb_func
 565              		.fpu softvfp
 567              	MX_TIM3_Init:
 568              	.LFB69:
 366:Src/main.c    **** 
 569              		.loc 1 366 1 is_stmt 1 view -0
 570              		.cfi_startproc
 571              		@ args = 0, pretend = 0, frame = 56
 572              		@ frame_needed = 0, uses_anonymous_args = 0
 573 0000 30B5     		push	{r4, r5, lr}
 574              	.LCFI12:
 575              		.cfi_def_cfa_offset 12
 576              		.cfi_offset 4, -12
 577              		.cfi_offset 5, -8
 578              		.cfi_offset 14, -4
 579 0002 8FB0     		sub	sp, sp, #60
 580              	.LCFI13:
 581              		.cfi_def_cfa_offset 72
 372:Src/main.c    ****   TIM_MasterConfigTypeDef sMasterConfig = {0};
 582              		.loc 1 372 3 view .LVU168
 372:Src/main.c    ****   TIM_MasterConfigTypeDef sMasterConfig = {0};
 583              		.loc 1 372 26 is_stmt 0 view .LVU169
 584 0004 0024     		movs	r4, #0
 585 0006 0A94     		str	r4, [sp, #40]
 586 0008 0B94     		str	r4, [sp, #44]
 587 000a 0C94     		str	r4, [sp, #48]
 588 000c 0D94     		str	r4, [sp, #52]
 373:Src/main.c    ****   TIM_OC_InitTypeDef sConfigOC = {0};
 589              		.loc 1 373 3 is_stmt 1 view .LVU170
 373:Src/main.c    ****   TIM_OC_InitTypeDef sConfigOC = {0};
 590              		.loc 1 373 27 is_stmt 0 view .LVU171
 591 000e 0894     		str	r4, [sp, #32]
 592 0010 0994     		str	r4, [sp, #36]
 374:Src/main.c    **** 
 593              		.loc 1 374 3 is_stmt 1 view .LVU172
 374:Src/main.c    **** 
 594              		.loc 1 374 22 is_stmt 0 view .LVU173
 595 0012 0194     		str	r4, [sp, #4]
 596 0014 0294     		str	r4, [sp, #8]
 597 0016 0394     		str	r4, [sp, #12]
 598 0018 0494     		str	r4, [sp, #16]
 599 001a 0594     		str	r4, [sp, #20]
 600 001c 0694     		str	r4, [sp, #24]
 601 001e 0794     		str	r4, [sp, #28]
 379:Src/main.c    ****   htim3.Init.Prescaler = 719;
 602              		.loc 1 379 3 is_stmt 1 view .LVU174
 379:Src/main.c    ****   htim3.Init.Prescaler = 719;
 603              		.loc 1 379 18 is_stmt 0 view .LVU175
ARM GAS  C:\Users\Administrator.DESKTOP-24M4MSA\AppData\Local\Temp\ccOsfb0b.s 			page 23


 604 0020 164D     		ldr	r5, .L27
 605 0022 174B     		ldr	r3, .L27+4
 606 0024 2B60     		str	r3, [r5]
 380:Src/main.c    ****   htim3.Init.CounterMode = TIM_COUNTERMODE_UP;
 607              		.loc 1 380 3 is_stmt 1 view .LVU176
 380:Src/main.c    ****   htim3.Init.CounterMode = TIM_COUNTERMODE_UP;
 608              		.loc 1 380 24 is_stmt 0 view .LVU177
 609 0026 40F2CF23 		movw	r3, #719
 610 002a 6B60     		str	r3, [r5, #4]
 381:Src/main.c    ****   htim3.Init.Period = 1999;
 611              		.loc 1 381 3 is_stmt 1 view .LVU178
 381:Src/main.c    ****   htim3.Init.Period = 1999;
 612              		.loc 1 381 26 is_stmt 0 view .LVU179
 613 002c AC60     		str	r4, [r5, #8]
 382:Src/main.c    ****   htim3.Init.ClockDivision = TIM_CLOCKDIVISION_DIV1;
 614              		.loc 1 382 3 is_stmt 1 view .LVU180
 382:Src/main.c    ****   htim3.Init.ClockDivision = TIM_CLOCKDIVISION_DIV1;
 615              		.loc 1 382 21 is_stmt 0 view .LVU181
 616 002e 40F2CF73 		movw	r3, #1999
 617 0032 EB60     		str	r3, [r5, #12]
 383:Src/main.c    ****   htim3.Init.AutoReloadPreload = TIM_AUTORELOAD_PRELOAD_DISABLE;
 618              		.loc 1 383 3 is_stmt 1 view .LVU182
 383:Src/main.c    ****   htim3.Init.AutoReloadPreload = TIM_AUTORELOAD_PRELOAD_DISABLE;
 619              		.loc 1 383 28 is_stmt 0 view .LVU183
 620 0034 2C61     		str	r4, [r5, #16]
 384:Src/main.c    ****   if (HAL_TIM_Base_Init(&htim3) != HAL_OK)
 621              		.loc 1 384 3 is_stmt 1 view .LVU184
 384:Src/main.c    ****   if (HAL_TIM_Base_Init(&htim3) != HAL_OK)
 622              		.loc 1 384 32 is_stmt 0 view .LVU185
 623 0036 AC61     		str	r4, [r5, #24]
 385:Src/main.c    ****   {
 624              		.loc 1 385 3 is_stmt 1 view .LVU186
 385:Src/main.c    ****   {
 625              		.loc 1 385 7 is_stmt 0 view .LVU187
 626 0038 2846     		mov	r0, r5
 627 003a FFF7FEFF 		bl	HAL_TIM_Base_Init
 628              	.LVL16:
 389:Src/main.c    ****   if (HAL_TIM_ConfigClockSource(&htim3, &sClockSourceConfig) != HAL_OK)
 629              		.loc 1 389 3 is_stmt 1 view .LVU188
 389:Src/main.c    ****   if (HAL_TIM_ConfigClockSource(&htim3, &sClockSourceConfig) != HAL_OK)
 630              		.loc 1 389 34 is_stmt 0 view .LVU189
 631 003e 4FF48053 		mov	r3, #4096
 632 0042 0A93     		str	r3, [sp, #40]
 390:Src/main.c    ****   {
 633              		.loc 1 390 3 is_stmt 1 view .LVU190
 390:Src/main.c    ****   {
 634              		.loc 1 390 7 is_stmt 0 view .LVU191
 635 0044 0AA9     		add	r1, sp, #40
 636 0046 2846     		mov	r0, r5
 637 0048 FFF7FEFF 		bl	HAL_TIM_ConfigClockSource
 638              	.LVL17:
 394:Src/main.c    ****   {
 639              		.loc 1 394 3 is_stmt 1 view .LVU192
 394:Src/main.c    ****   {
 640              		.loc 1 394 7 is_stmt 0 view .LVU193
 641 004c 2846     		mov	r0, r5
 642 004e FFF7FEFF 		bl	HAL_TIM_PWM_Init
ARM GAS  C:\Users\Administrator.DESKTOP-24M4MSA\AppData\Local\Temp\ccOsfb0b.s 			page 24


 643              	.LVL18:
 398:Src/main.c    ****   sMasterConfig.MasterSlaveMode = TIM_MASTERSLAVEMODE_DISABLE;
 644              		.loc 1 398 3 is_stmt 1 view .LVU194
 398:Src/main.c    ****   sMasterConfig.MasterSlaveMode = TIM_MASTERSLAVEMODE_DISABLE;
 645              		.loc 1 398 37 is_stmt 0 view .LVU195
 646 0052 0894     		str	r4, [sp, #32]
 399:Src/main.c    ****   if (HAL_TIMEx_MasterConfigSynchronization(&htim3, &sMasterConfig) != HAL_OK)
 647              		.loc 1 399 3 is_stmt 1 view .LVU196
 399:Src/main.c    ****   if (HAL_TIMEx_MasterConfigSynchronization(&htim3, &sMasterConfig) != HAL_OK)
 648              		.loc 1 399 33 is_stmt 0 view .LVU197
 649 0054 0994     		str	r4, [sp, #36]
 400:Src/main.c    ****   {
 650              		.loc 1 400 3 is_stmt 1 view .LVU198
 400:Src/main.c    ****   {
 651              		.loc 1 400 7 is_stmt 0 view .LVU199
 652 0056 08A9     		add	r1, sp, #32
 653 0058 2846     		mov	r0, r5
 654 005a FFF7FEFF 		bl	HAL_TIMEx_MasterConfigSynchronization
 655              	.LVL19:
 404:Src/main.c    ****   sConfigOC.Pulse = 0;
 656              		.loc 1 404 3 is_stmt 1 view .LVU200
 404:Src/main.c    ****   sConfigOC.Pulse = 0;
 657              		.loc 1 404 20 is_stmt 0 view .LVU201
 658 005e 6023     		movs	r3, #96
 659 0060 0193     		str	r3, [sp, #4]
 405:Src/main.c    ****   sConfigOC.OCPolarity = TIM_OCPOLARITY_HIGH;
 660              		.loc 1 405 3 is_stmt 1 view .LVU202
 405:Src/main.c    ****   sConfigOC.OCPolarity = TIM_OCPOLARITY_HIGH;
 661              		.loc 1 405 19 is_stmt 0 view .LVU203
 662 0062 0294     		str	r4, [sp, #8]
 406:Src/main.c    ****   sConfigOC.OCFastMode = TIM_OCFAST_DISABLE;
 663              		.loc 1 406 3 is_stmt 1 view .LVU204
 406:Src/main.c    ****   sConfigOC.OCFastMode = TIM_OCFAST_DISABLE;
 664              		.loc 1 406 24 is_stmt 0 view .LVU205
 665 0064 0394     		str	r4, [sp, #12]
 407:Src/main.c    ****   if (HAL_TIM_PWM_ConfigChannel(&htim3, &sConfigOC, TIM_CHANNEL_1) != HAL_OK)
 666              		.loc 1 407 3 is_stmt 1 view .LVU206
 407:Src/main.c    ****   if (HAL_TIM_PWM_ConfigChannel(&htim3, &sConfigOC, TIM_CHANNEL_1) != HAL_OK)
 667              		.loc 1 407 24 is_stmt 0 view .LVU207
 668 0066 0594     		str	r4, [sp, #20]
 408:Src/main.c    ****   {
 669              		.loc 1 408 3 is_stmt 1 view .LVU208
 408:Src/main.c    ****   {
 670              		.loc 1 408 7 is_stmt 0 view .LVU209
 671 0068 2246     		mov	r2, r4
 672 006a 01A9     		add	r1, sp, #4
 673 006c 2846     		mov	r0, r5
 674 006e FFF7FEFF 		bl	HAL_TIM_PWM_ConfigChannel
 675              	.LVL20:
 415:Src/main.c    **** 
 676              		.loc 1 415 3 is_stmt 1 view .LVU210
 677 0072 2846     		mov	r0, r5
 678 0074 FFF7FEFF 		bl	HAL_TIM_MspPostInit
 679              	.LVL21:
 417:Src/main.c    **** 
 680              		.loc 1 417 1 is_stmt 0 view .LVU211
 681 0078 0FB0     		add	sp, sp, #60
ARM GAS  C:\Users\Administrator.DESKTOP-24M4MSA\AppData\Local\Temp\ccOsfb0b.s 			page 25


 682              	.LCFI14:
 683              		.cfi_def_cfa_offset 12
 684              		@ sp needed
 685 007a 30BD     		pop	{r4, r5, pc}
 686              	.L28:
 687              		.align	2
 688              	.L27:
 689 007c 00000000 		.word	.LANCHOR4
 690 0080 00040040 		.word	1073742848
 691              		.cfi_endproc
 692              	.LFE69:
 694              		.section	.text.SystemClock_Config,"ax",%progbits
 695              		.align	1
 696              		.global	SystemClock_Config
 697              		.syntax unified
 698              		.thumb
 699              		.thumb_func
 700              		.fpu softvfp
 702              	SystemClock_Config:
 703              	.LFB66:
 220:Src/main.c    ****   RCC_OscInitTypeDef RCC_OscInitStruct = {0};
 704              		.loc 1 220 1 is_stmt 1 view -0
 705              		.cfi_startproc
 706              		@ args = 0, pretend = 0, frame = 64
 707              		@ frame_needed = 0, uses_anonymous_args = 0
 708 0000 30B5     		push	{r4, r5, lr}
 709              	.LCFI15:
 710              		.cfi_def_cfa_offset 12
 711              		.cfi_offset 4, -12
 712              		.cfi_offset 5, -8
 713              		.cfi_offset 14, -4
 714 0002 91B0     		sub	sp, sp, #68
 715              	.LCFI16:
 716              		.cfi_def_cfa_offset 80
 221:Src/main.c    ****   RCC_ClkInitTypeDef RCC_ClkInitStruct = {0};
 717              		.loc 1 221 3 view .LVU213
 221:Src/main.c    ****   RCC_ClkInitTypeDef RCC_ClkInitStruct = {0};
 718              		.loc 1 221 22 is_stmt 0 view .LVU214
 719 0004 2822     		movs	r2, #40
 720 0006 0021     		movs	r1, #0
 721 0008 06A8     		add	r0, sp, #24
 722 000a FFF7FEFF 		bl	memset
 723              	.LVL22:
 222:Src/main.c    **** 
 724              		.loc 1 222 3 is_stmt 1 view .LVU215
 222:Src/main.c    **** 
 725              		.loc 1 222 22 is_stmt 0 view .LVU216
 726 000e 0024     		movs	r4, #0
 727 0010 0194     		str	r4, [sp, #4]
 728 0012 0294     		str	r4, [sp, #8]
 729 0014 0394     		str	r4, [sp, #12]
 730 0016 0494     		str	r4, [sp, #16]
 731 0018 0594     		str	r4, [sp, #20]
 226:Src/main.c    ****   RCC_OscInitStruct.HSEState = RCC_HSE_ON;
 732              		.loc 1 226 3 is_stmt 1 view .LVU217
 226:Src/main.c    ****   RCC_OscInitStruct.HSEState = RCC_HSE_ON;
 733              		.loc 1 226 36 is_stmt 0 view .LVU218
ARM GAS  C:\Users\Administrator.DESKTOP-24M4MSA\AppData\Local\Temp\ccOsfb0b.s 			page 26


 734 001a 0122     		movs	r2, #1
 735 001c 0692     		str	r2, [sp, #24]
 227:Src/main.c    ****   RCC_OscInitStruct.HSEPredivValue = RCC_HSE_PREDIV_DIV1;
 736              		.loc 1 227 3 is_stmt 1 view .LVU219
 227:Src/main.c    ****   RCC_OscInitStruct.HSEPredivValue = RCC_HSE_PREDIV_DIV1;
 737              		.loc 1 227 30 is_stmt 0 view .LVU220
 738 001e 4FF48033 		mov	r3, #65536
 739 0022 0793     		str	r3, [sp, #28]
 228:Src/main.c    ****   RCC_OscInitStruct.HSIState = RCC_HSI_ON;
 740              		.loc 1 228 3 is_stmt 1 view .LVU221
 229:Src/main.c    ****   RCC_OscInitStruct.PLL.PLLState = RCC_PLL_ON;
 741              		.loc 1 229 3 view .LVU222
 229:Src/main.c    ****   RCC_OscInitStruct.PLL.PLLState = RCC_PLL_ON;
 742              		.loc 1 229 30 is_stmt 0 view .LVU223
 743 0024 0A92     		str	r2, [sp, #40]
 230:Src/main.c    ****   RCC_OscInitStruct.PLL.PLLSource = RCC_PLLSOURCE_HSE;
 744              		.loc 1 230 3 is_stmt 1 view .LVU224
 230:Src/main.c    ****   RCC_OscInitStruct.PLL.PLLSource = RCC_PLLSOURCE_HSE;
 745              		.loc 1 230 34 is_stmt 0 view .LVU225
 746 0026 0225     		movs	r5, #2
 747 0028 0D95     		str	r5, [sp, #52]
 231:Src/main.c    ****   RCC_OscInitStruct.PLL.PLLMUL = RCC_PLL_MUL9;
 748              		.loc 1 231 3 is_stmt 1 view .LVU226
 231:Src/main.c    ****   RCC_OscInitStruct.PLL.PLLMUL = RCC_PLL_MUL9;
 749              		.loc 1 231 35 is_stmt 0 view .LVU227
 750 002a 0E93     		str	r3, [sp, #56]
 232:Src/main.c    ****   if (HAL_RCC_OscConfig(&RCC_OscInitStruct) != HAL_OK)
 751              		.loc 1 232 3 is_stmt 1 view .LVU228
 232:Src/main.c    ****   if (HAL_RCC_OscConfig(&RCC_OscInitStruct) != HAL_OK)
 752              		.loc 1 232 32 is_stmt 0 view .LVU229
 753 002c 4FF4E013 		mov	r3, #1835008
 754 0030 0F93     		str	r3, [sp, #60]
 233:Src/main.c    ****   {
 755              		.loc 1 233 3 is_stmt 1 view .LVU230
 233:Src/main.c    ****   {
 756              		.loc 1 233 7 is_stmt 0 view .LVU231
 757 0032 06A8     		add	r0, sp, #24
 758 0034 FFF7FEFF 		bl	HAL_RCC_OscConfig
 759              	.LVL23:
 239:Src/main.c    ****                               |RCC_CLOCKTYPE_PCLK1|RCC_CLOCKTYPE_PCLK2;
 760              		.loc 1 239 3 is_stmt 1 view .LVU232
 239:Src/main.c    ****                               |RCC_CLOCKTYPE_PCLK1|RCC_CLOCKTYPE_PCLK2;
 761              		.loc 1 239 31 is_stmt 0 view .LVU233
 762 0038 0F23     		movs	r3, #15
 763 003a 0193     		str	r3, [sp, #4]
 241:Src/main.c    ****   RCC_ClkInitStruct.AHBCLKDivider = RCC_SYSCLK_DIV1;
 764              		.loc 1 241 3 is_stmt 1 view .LVU234
 241:Src/main.c    ****   RCC_ClkInitStruct.AHBCLKDivider = RCC_SYSCLK_DIV1;
 765              		.loc 1 241 34 is_stmt 0 view .LVU235
 766 003c 0295     		str	r5, [sp, #8]
 242:Src/main.c    ****   RCC_ClkInitStruct.APB1CLKDivider = RCC_HCLK_DIV2;
 767              		.loc 1 242 3 is_stmt 1 view .LVU236
 242:Src/main.c    ****   RCC_ClkInitStruct.APB1CLKDivider = RCC_HCLK_DIV2;
 768              		.loc 1 242 35 is_stmt 0 view .LVU237
 769 003e 0394     		str	r4, [sp, #12]
 243:Src/main.c    ****   RCC_ClkInitStruct.APB2CLKDivider = RCC_HCLK_DIV1;
 770              		.loc 1 243 3 is_stmt 1 view .LVU238
ARM GAS  C:\Users\Administrator.DESKTOP-24M4MSA\AppData\Local\Temp\ccOsfb0b.s 			page 27


 243:Src/main.c    ****   RCC_ClkInitStruct.APB2CLKDivider = RCC_HCLK_DIV1;
 771              		.loc 1 243 36 is_stmt 0 view .LVU239
 772 0040 4FF48063 		mov	r3, #1024
 773 0044 0493     		str	r3, [sp, #16]
 244:Src/main.c    **** 
 774              		.loc 1 244 3 is_stmt 1 view .LVU240
 244:Src/main.c    **** 
 775              		.loc 1 244 36 is_stmt 0 view .LVU241
 776 0046 0594     		str	r4, [sp, #20]
 246:Src/main.c    ****   {
 777              		.loc 1 246 3 is_stmt 1 view .LVU242
 246:Src/main.c    ****   {
 778              		.loc 1 246 7 is_stmt 0 view .LVU243
 779 0048 2946     		mov	r1, r5
 780 004a 01A8     		add	r0, sp, #4
 781 004c FFF7FEFF 		bl	HAL_RCC_ClockConfig
 782              	.LVL24:
 250:Src/main.c    **** 
 783              		.loc 1 250 1 view .LVU244
 784 0050 11B0     		add	sp, sp, #68
 785              	.LCFI17:
 786              		.cfi_def_cfa_offset 12
 787              		@ sp needed
 788 0052 30BD     		pop	{r4, r5, pc}
 789              		.cfi_endproc
 790              	.LFE66:
 792              		.section	.text.main,"ax",%progbits
 793              		.align	1
 794              		.global	main
 795              		.syntax unified
 796              		.thumb
 797              		.thumb_func
 798              		.fpu softvfp
 800              	main:
 801              	.LFB65:
 101:Src/main.c    ****   /* USER CODE BEGIN 1 */
 802              		.loc 1 101 1 is_stmt 1 view -0
 803              		.cfi_startproc
 804              		@ Volatile: function does not return.
 805              		@ args = 0, pretend = 0, frame = 40
 806              		@ frame_needed = 0, uses_anonymous_args = 0
 807 0000 80B5     		push	{r7, lr}
 808              	.LCFI18:
 809              		.cfi_def_cfa_offset 8
 810              		.cfi_offset 7, -8
 811              		.cfi_offset 14, -4
 812 0002 8CB0     		sub	sp, sp, #48
 813              	.LCFI19:
 814              		.cfi_def_cfa_offset 56
 109:Src/main.c    **** 
 815              		.loc 1 109 3 view .LVU246
 816 0004 FFF7FEFF 		bl	HAL_Init
 817              	.LVL25:
 116:Src/main.c    **** 
 818              		.loc 1 116 3 view .LVU247
 819 0008 FFF7FEFF 		bl	SystemClock_Config
 820              	.LVL26:
ARM GAS  C:\Users\Administrator.DESKTOP-24M4MSA\AppData\Local\Temp\ccOsfb0b.s 			page 28


 123:Src/main.c    ****   MX_USART2_UART_Init();
 821              		.loc 1 123 3 view .LVU248
 822 000c FFF7FEFF 		bl	MX_GPIO_Init
 823              	.LVL27:
 124:Src/main.c    ****   MX_DMA_Init();
 824              		.loc 1 124 3 view .LVU249
 825 0010 FFF7FEFF 		bl	MX_USART2_UART_Init
 826              	.LVL28:
 125:Src/main.c    ****   MX_CAN_Init();
 827              		.loc 1 125 3 view .LVU250
 828 0014 FFF7FEFF 		bl	MX_DMA_Init
 829              	.LVL29:
 126:Src/main.c    ****   MX_USART1_UART_Init();
 830              		.loc 1 126 3 view .LVU251
 831 0018 FFF7FEFF 		bl	MX_CAN_Init
 832              	.LVL30:
 127:Src/main.c    ****   MX_TIM2_Init();
 833              		.loc 1 127 3 view .LVU252
 834 001c FFF7FEFF 		bl	MX_USART1_UART_Init
 835              	.LVL31:
 128:Src/main.c    ****   MX_TIM3_Init();
 836              		.loc 1 128 3 view .LVU253
 837 0020 FFF7FEFF 		bl	MX_TIM2_Init
 838              	.LVL32:
 129:Src/main.c    ****   /* USER CODE BEGIN 2 */
 839              		.loc 1 129 3 view .LVU254
 840 0024 FFF7FEFF 		bl	MX_TIM3_Init
 841              	.LVL33:
 131:Src/main.c    **** 
 842              		.loc 1 131 3 view .LVU255
 133:Src/main.c    ****   canfil.FilterMode = CAN_FILTERMODE_IDMASK;
 843              		.loc 1 133 3 view .LVU256
 133:Src/main.c    ****   canfil.FilterMode = CAN_FILTERMODE_IDMASK;
 844              		.loc 1 133 21 is_stmt 0 view .LVU257
 845 0028 0024     		movs	r4, #0
 846 002a 0794     		str	r4, [sp, #28]
 134:Src/main.c    ****   canfil.FilterFIFOAssignment = CAN_RX_FIFO1;
 847              		.loc 1 134 3 is_stmt 1 view .LVU258
 134:Src/main.c    ****   canfil.FilterFIFOAssignment = CAN_RX_FIFO1;
 848              		.loc 1 134 21 is_stmt 0 view .LVU259
 849 002c 0894     		str	r4, [sp, #32]
 135:Src/main.c    ****   canfil.FilterIdHigh = 0;
 850              		.loc 1 135 3 is_stmt 1 view .LVU260
 135:Src/main.c    ****   canfil.FilterIdHigh = 0;
 851              		.loc 1 135 31 is_stmt 0 view .LVU261
 852 002e 0123     		movs	r3, #1
 853 0030 0693     		str	r3, [sp, #24]
 136:Src/main.c    ****   canfil.FilterIdLow = 0;
 854              		.loc 1 136 3 is_stmt 1 view .LVU262
 136:Src/main.c    ****   canfil.FilterIdLow = 0;
 855              		.loc 1 136 23 is_stmt 0 view .LVU263
 856 0032 0294     		str	r4, [sp, #8]
 137:Src/main.c    ****   canfil.FilterMaskIdHigh = 0;
 857              		.loc 1 137 3 is_stmt 1 view .LVU264
 137:Src/main.c    ****   canfil.FilterMaskIdHigh = 0;
 858              		.loc 1 137 22 is_stmt 0 view .LVU265
 859 0034 0394     		str	r4, [sp, #12]
ARM GAS  C:\Users\Administrator.DESKTOP-24M4MSA\AppData\Local\Temp\ccOsfb0b.s 			page 29


 138:Src/main.c    ****   canfil.FilterMaskIdLow = 0;
 860              		.loc 1 138 3 is_stmt 1 view .LVU266
 138:Src/main.c    ****   canfil.FilterMaskIdLow = 0;
 861              		.loc 1 138 27 is_stmt 0 view .LVU267
 862 0036 0494     		str	r4, [sp, #16]
 139:Src/main.c    ****   canfil.FilterScale = CAN_FILTERSCALE_32BIT;
 863              		.loc 1 139 3 is_stmt 1 view .LVU268
 139:Src/main.c    ****   canfil.FilterScale = CAN_FILTERSCALE_32BIT;
 864              		.loc 1 139 26 is_stmt 0 view .LVU269
 865 0038 0594     		str	r4, [sp, #20]
 140:Src/main.c    ****   canfil.FilterActivation = ENABLE;
 866              		.loc 1 140 3 is_stmt 1 view .LVU270
 140:Src/main.c    ****   canfil.FilterActivation = ENABLE;
 867              		.loc 1 140 22 is_stmt 0 view .LVU271
 868 003a 0993     		str	r3, [sp, #36]
 141:Src/main.c    ****   canfil.SlaveStartFilterBank = 14;
 869              		.loc 1 141 3 is_stmt 1 view .LVU272
 141:Src/main.c    ****   canfil.SlaveStartFilterBank = 14;
 870              		.loc 1 141 27 is_stmt 0 view .LVU273
 871 003c 0A93     		str	r3, [sp, #40]
 142:Src/main.c    **** 
 872              		.loc 1 142 3 is_stmt 1 view .LVU274
 142:Src/main.c    **** 
 873              		.loc 1 142 31 is_stmt 0 view .LVU275
 874 003e 0E23     		movs	r3, #14
 875 0040 0B93     		str	r3, [sp, #44]
 144:Src/main.c    ****   txHeader.IDE = CAN_ID_STD;
 876              		.loc 1 144 3 is_stmt 1 view .LVU276
 144:Src/main.c    ****   txHeader.IDE = CAN_ID_STD;
 877              		.loc 1 144 16 is_stmt 0 view .LVU277
 878 0042 4D4B     		ldr	r3, .L41
 879 0044 0826     		movs	r6, #8
 880 0046 1E61     		str	r6, [r3, #16]
 145:Src/main.c    ****   txHeader.RTR = CAN_RTR_DATA;
 881              		.loc 1 145 3 is_stmt 1 view .LVU278
 145:Src/main.c    ****   txHeader.RTR = CAN_RTR_DATA;
 882              		.loc 1 145 16 is_stmt 0 view .LVU279
 883 0048 9C60     		str	r4, [r3, #8]
 146:Src/main.c    ****   txHeader.StdId = 0x200;
 884              		.loc 1 146 3 is_stmt 1 view .LVU280
 146:Src/main.c    ****   txHeader.StdId = 0x200;
 885              		.loc 1 146 16 is_stmt 0 view .LVU281
 886 004a DC60     		str	r4, [r3, #12]
 147:Src/main.c    ****   txHeader.ExtId = 0x0;
 887              		.loc 1 147 3 is_stmt 1 view .LVU282
 147:Src/main.c    ****   txHeader.ExtId = 0x0;
 888              		.loc 1 147 18 is_stmt 0 view .LVU283
 889 004c 4FF40072 		mov	r2, #512
 890 0050 1A60     		str	r2, [r3]
 148:Src/main.c    ****   txHeader.TransmitGlobalTime = DISABLE;
 891              		.loc 1 148 3 is_stmt 1 view .LVU284
 148:Src/main.c    ****   txHeader.TransmitGlobalTime = DISABLE;
 892              		.loc 1 148 18 is_stmt 0 view .LVU285
 893 0052 5C60     		str	r4, [r3, #4]
 149:Src/main.c    **** 
 894              		.loc 1 149 3 is_stmt 1 view .LVU286
 149:Src/main.c    **** 
ARM GAS  C:\Users\Administrator.DESKTOP-24M4MSA\AppData\Local\Temp\ccOsfb0b.s 			page 30


 895              		.loc 1 149 31 is_stmt 0 view .LVU287
 896 0054 1C75     		strb	r4, [r3, #20]
 151:Src/main.c    ****   HAL_CAN_Start(&hcan);
 897              		.loc 1 151 3 is_stmt 1 view .LVU288
 898 0056 494D     		ldr	r5, .L41+4
 899 0058 0DEB0601 		add	r1, sp, r6
 900 005c 2846     		mov	r0, r5
 901 005e FFF7FEFF 		bl	HAL_CAN_ConfigFilter
 902              	.LVL34:
 152:Src/main.c    ****   HAL_TIM_PWM_Start(&htim2, TIM_CHANNEL_1);
 903              		.loc 1 152 3 view .LVU289
 904 0062 2846     		mov	r0, r5
 905 0064 FFF7FEFF 		bl	HAL_CAN_Start
 906              	.LVL35:
 153:Src/main.c    ****   HAL_TIM_PWM_Start(&htim2, TIM_CHANNEL_2);
 907              		.loc 1 153 3 view .LVU290
 908 0068 454D     		ldr	r5, .L41+8
 909 006a 2146     		mov	r1, r4
 910 006c 2846     		mov	r0, r5
 911 006e FFF7FEFF 		bl	HAL_TIM_PWM_Start
 912              	.LVL36:
 154:Src/main.c    ****   HAL_TIM_PWM_Start(&htim2, TIM_CHANNEL_3);
 913              		.loc 1 154 3 view .LVU291
 914 0072 0421     		movs	r1, #4
 915 0074 2846     		mov	r0, r5
 916 0076 FFF7FEFF 		bl	HAL_TIM_PWM_Start
 917              	.LVL37:
 155:Src/main.c    ****   HAL_TIM_PWM_Start(&htim2, TIM_CHANNEL_4);
 918              		.loc 1 155 3 view .LVU292
 919 007a 3146     		mov	r1, r6
 920 007c 2846     		mov	r0, r5
 921 007e FFF7FEFF 		bl	HAL_TIM_PWM_Start
 922              	.LVL38:
 156:Src/main.c    ****   HAL_TIM_PWM_Start(&htim3, TIM_CHANNEL_1);
 923              		.loc 1 156 3 view .LVU293
 924 0082 0C21     		movs	r1, #12
 925 0084 2846     		mov	r0, r5
 926 0086 FFF7FEFF 		bl	HAL_TIM_PWM_Start
 927              	.LVL39:
 157:Src/main.c    ****   // HAL_CAN_ActivateNotification(&hcan, CAN_IT_RX_FIFO1_MSG_PENDING);
 928              		.loc 1 157 3 view .LVU294
 929 008a 2146     		mov	r1, r4
 930 008c 3D48     		ldr	r0, .L41+12
 931 008e FFF7FEFF 		bl	HAL_TIM_PWM_Start
 932              	.LVL40:
 160:Src/main.c    ****   pid_init(&motorB, 8, 1.5, 0, 8000, 16000);
 933              		.loc 1 160 3 view .LVU295
 934 0092 0024     		movs	r4, #0
 935 0094 3C4E     		ldr	r6, .L41+16
 936 0096 0196     		str	r6, [sp, #4]	@ float
 937 0098 3C4D     		ldr	r5, .L41+20
 938 009a 0095     		str	r5, [sp]	@ float
 939 009c 2346     		mov	r3, r4
 940 009e 3C4A     		ldr	r2, .L41+24
 941 00a0 3C49     		ldr	r1, .L41+28
 942 00a2 3D48     		ldr	r0, .L41+32
 943 00a4 FFF7FEFF 		bl	pid_init
ARM GAS  C:\Users\Administrator.DESKTOP-24M4MSA\AppData\Local\Temp\ccOsfb0b.s 			page 31


 944              	.LVL41:
 161:Src/main.c    ****   pid_init(&motorC, 8, 1.5, 0, 8000, 16000);
 945              		.loc 1 161 3 view .LVU296
 946 00a8 4FF07F58 		mov	r8, #1069547520
 947 00ac 4FF08247 		mov	r7, #1090519040
 948 00b0 0196     		str	r6, [sp, #4]	@ float
 949 00b2 0095     		str	r5, [sp]	@ float
 950 00b4 2346     		mov	r3, r4
 951 00b6 4246     		mov	r2, r8
 952 00b8 3946     		mov	r1, r7
 953 00ba 3848     		ldr	r0, .L41+36
 954 00bc FFF7FEFF 		bl	pid_init
 955              	.LVL42:
 162:Src/main.c    ****   pid_init(&motorD, 8, 1, 0, 8000, 16000);
 956              		.loc 1 162 3 view .LVU297
 957 00c0 0196     		str	r6, [sp, #4]	@ float
 958 00c2 0095     		str	r5, [sp]	@ float
 959 00c4 2346     		mov	r3, r4
 960 00c6 4246     		mov	r2, r8
 961 00c8 3946     		mov	r1, r7
 962 00ca 3548     		ldr	r0, .L41+40
 963 00cc FFF7FEFF 		bl	pid_init
 964              	.LVL43:
 163:Src/main.c    ****   arm_init(&arm, 150, 150, 160, 150);
 965              		.loc 1 163 3 view .LVU298
 966 00d0 0196     		str	r6, [sp, #4]	@ float
 967 00d2 0095     		str	r5, [sp]	@ float
 968 00d4 2346     		mov	r3, r4
 969 00d6 4FF07E52 		mov	r2, #1065353216
 970 00da 3946     		mov	r1, r7
 971 00dc 3148     		ldr	r0, .L41+44
 972 00de FFF7FEFF 		bl	pid_init
 973              	.LVL44:
 164:Src/main.c    ****   HAL_UART_Receive_DMA(&huart1, dbus_rx_buffer, 18);
 974              		.loc 1 164 3 view .LVU299
 975 00e2 9621     		movs	r1, #150
 976 00e4 0091     		str	r1, [sp]
 977 00e6 A023     		movs	r3, #160
 978 00e8 0A46     		mov	r2, r1
 979 00ea 2F48     		ldr	r0, .L41+48
 980 00ec FFF7FEFF 		bl	arm_init
 981              	.LVL45:
 165:Src/main.c    ****   /* USER CODE END 2 */
 982              		.loc 1 165 3 view .LVU300
 983 00f0 1222     		movs	r2, #18
 984 00f2 2E49     		ldr	r1, .L41+52
 985 00f4 2E48     		ldr	r0, .L41+56
 986 00f6 FFF7FEFF 		bl	HAL_UART_Receive_DMA
 987              	.LVL46:
 988 00fa 07E0     		b	.L33
 989              	.L38:
 179:Src/main.c    ****         break;
 990              		.loc 1 179 9 view .LVU301
 179:Src/main.c    ****         break;
 991              		.loc 1 179 37 is_stmt 0 view .LVU302
 992 00fc 2D4A     		ldr	r2, .L41+60
 993 00fe 9178     		ldrb	r1, [r2, #2]	@ zero_extendqisi2
ARM GAS  C:\Users\Administrator.DESKTOP-24M4MSA\AppData\Local\Temp\ccOsfb0b.s 			page 32


 179:Src/main.c    ****         break;
 994              		.loc 1 179 50 view .LVU303
 995 0100 D378     		ldrb	r3, [r2, #3]	@ zero_extendqisi2
 179:Src/main.c    ****         break;
 996              		.loc 1 179 25 view .LVU304
 997 0102 03EB0123 		add	r3, r3, r1, lsl #8
 998 0106 1BB2     		sxth	r3, r3
 179:Src/main.c    ****         break;
 999              		.loc 1 179 23 view .LVU305
 1000 0108 2B4A     		ldr	r2, .L41+64
 1001 010a 1380     		strh	r3, [r2]	@ movhi
 180:Src/main.c    ****       }
 1002              		.loc 1 180 9 is_stmt 1 view .LVU306
 1003              	.L33:
 170:Src/main.c    ****   {
 1004              		.loc 1 170 3 view .LVU307
 176:Src/main.c    ****     switch(rxHeader.StdId){
 1005              		.loc 1 176 5 view .LVU308
 176:Src/main.c    ****     switch(rxHeader.StdId){
 1006              		.loc 1 176 19 is_stmt 0 view .LVU309
 1007 010c 2B4C     		ldr	r4, .L41+68
 1008 010e 294B     		ldr	r3, .L41+60
 1009 0110 2246     		mov	r2, r4
 1010 0112 0121     		movs	r1, #1
 1011 0114 1948     		ldr	r0, .L41+4
 1012 0116 FFF7FEFF 		bl	HAL_CAN_GetRxMessage
 1013              	.LVL47:
 176:Src/main.c    ****     switch(rxHeader.StdId){
 1014              		.loc 1 176 17 view .LVU310
 1015 011a 294B     		ldr	r3, .L41+72
 1016 011c 1870     		strb	r0, [r3]
 177:Src/main.c    ****       case 0x201:{
 1017              		.loc 1 177 5 is_stmt 1 view .LVU311
 177:Src/main.c    ****       case 0x201:{
 1018              		.loc 1 177 20 is_stmt 0 view .LVU312
 1019 011e 2368     		ldr	r3, [r4]
 177:Src/main.c    ****       case 0x201:{
 1020              		.loc 1 177 5 view .LVU313
 1021 0120 A3F20123 		subw	r3, r3, #513
 1022 0124 032B     		cmp	r3, #3
 1023 0126 F1D8     		bhi	.L33
 1024 0128 01A2     		adr	r2, .L35
 1025 012a 52F823F0 		ldr	pc, [r2, r3, lsl #2]
 1026 012e 00BF     		.p2align 2
 1027              	.L35:
 1028 0130 FD000000 		.word	.L38+1
 1029 0134 41010000 		.word	.L37+1
 1030 0138 53010000 		.word	.L36+1
 1031 013c 65010000 		.word	.L34+1
 1032              		.p2align 1
 1033              	.L37:
 183:Src/main.c    ****         break;
 1034              		.loc 1 183 9 is_stmt 1 view .LVU314
 183:Src/main.c    ****         break;
 1035              		.loc 1 183 37 is_stmt 0 view .LVU315
 1036 0140 1C4A     		ldr	r2, .L41+60
 1037 0142 9178     		ldrb	r1, [r2, #2]	@ zero_extendqisi2
ARM GAS  C:\Users\Administrator.DESKTOP-24M4MSA\AppData\Local\Temp\ccOsfb0b.s 			page 33


 183:Src/main.c    ****         break;
 1038              		.loc 1 183 50 view .LVU316
 1039 0144 D378     		ldrb	r3, [r2, #3]	@ zero_extendqisi2
 183:Src/main.c    ****         break;
 1040              		.loc 1 183 25 view .LVU317
 1041 0146 03EB0123 		add	r3, r3, r1, lsl #8
 1042 014a 1BB2     		sxth	r3, r3
 183:Src/main.c    ****         break;
 1043              		.loc 1 183 23 view .LVU318
 1044 014c 1D4A     		ldr	r2, .L41+76
 1045 014e 1380     		strh	r3, [r2]	@ movhi
 184:Src/main.c    ****       }
 1046              		.loc 1 184 9 is_stmt 1 view .LVU319
 1047 0150 DCE7     		b	.L33
 1048              	.L36:
 187:Src/main.c    ****         break;
 1049              		.loc 1 187 9 view .LVU320
 187:Src/main.c    ****         break;
 1050              		.loc 1 187 37 is_stmt 0 view .LVU321
 1051 0152 184A     		ldr	r2, .L41+60
 1052 0154 9178     		ldrb	r1, [r2, #2]	@ zero_extendqisi2
 187:Src/main.c    ****         break;
 1053              		.loc 1 187 50 view .LVU322
 1054 0156 D378     		ldrb	r3, [r2, #3]	@ zero_extendqisi2
 187:Src/main.c    ****         break;
 1055              		.loc 1 187 25 view .LVU323
 1056 0158 03EB0123 		add	r3, r3, r1, lsl #8
 1057 015c 1BB2     		sxth	r3, r3
 187:Src/main.c    ****         break;
 1058              		.loc 1 187 23 view .LVU324
 1059 015e 1A4A     		ldr	r2, .L41+80
 1060 0160 1380     		strh	r3, [r2]	@ movhi
 188:Src/main.c    ****       }
 1061              		.loc 1 188 9 is_stmt 1 view .LVU325
 1062 0162 D3E7     		b	.L33
 1063              	.L34:
 191:Src/main.c    ****         break;
 1064              		.loc 1 191 9 view .LVU326
 191:Src/main.c    ****         break;
 1065              		.loc 1 191 37 is_stmt 0 view .LVU327
 1066 0164 134A     		ldr	r2, .L41+60
 1067 0166 9178     		ldrb	r1, [r2, #2]	@ zero_extendqisi2
 191:Src/main.c    ****         break;
 1068              		.loc 1 191 50 view .LVU328
 1069 0168 D378     		ldrb	r3, [r2, #3]	@ zero_extendqisi2
 191:Src/main.c    ****         break;
 1070              		.loc 1 191 25 view .LVU329
 1071 016a 03EB0123 		add	r3, r3, r1, lsl #8
 1072 016e 1BB2     		sxth	r3, r3
 191:Src/main.c    ****         break;
 1073              		.loc 1 191 23 view .LVU330
 1074 0170 164A     		ldr	r2, .L41+84
 1075 0172 1380     		strh	r3, [r2]	@ movhi
 192:Src/main.c    ****       }
 1076              		.loc 1 192 9 is_stmt 1 view .LVU331
 1077 0174 CAE7     		b	.L33
 1078              	.L42:
ARM GAS  C:\Users\Administrator.DESKTOP-24M4MSA\AppData\Local\Temp\ccOsfb0b.s 			page 34


 1079 0176 00BF     		.align	2
 1080              	.L41:
 1081 0178 00000000 		.word	.LANCHOR5
 1082 017c 00000000 		.word	.LANCHOR2
 1083 0180 00000000 		.word	.LANCHOR3
 1084 0184 00000000 		.word	.LANCHOR4
 1085 0188 00007A46 		.word	1182400512
 1086 018c 0000FA45 		.word	1174011904
 1087 0190 CDCC4C3D 		.word	1028443341
 1088 0194 0000A040 		.word	1084227584
 1089 0198 00000000 		.word	.LANCHOR6
 1090 019c 00000000 		.word	.LANCHOR7
 1091 01a0 00000000 		.word	.LANCHOR8
 1092 01a4 00000000 		.word	.LANCHOR9
 1093 01a8 00000000 		.word	.LANCHOR10
 1094 01ac 00000000 		.word	.LANCHOR11
 1095 01b0 00000000 		.word	.LANCHOR1
 1096 01b4 00000000 		.word	.LANCHOR12
 1097 01b8 00000000 		.word	.LANCHOR15
 1098 01bc 00000000 		.word	.LANCHOR13
 1099 01c0 00000000 		.word	.LANCHOR14
 1100 01c4 00000000 		.word	.LANCHOR16
 1101 01c8 00000000 		.word	.LANCHOR17
 1102 01cc 00000000 		.word	.LANCHOR18
 1103              		.cfi_endproc
 1104              	.LFE65:
 1106              		.section	.text.CAN_Set_Motor_Voltage,"ax",%progbits
 1107              		.align	1
 1108              		.global	CAN_Set_Motor_Voltage
 1109              		.syntax unified
 1110              		.thumb
 1111              		.thumb_func
 1112              		.fpu softvfp
 1114              	CAN_Set_Motor_Voltage:
 1115              	.LVL48:
 1116              	.LFB75:
 527:Src/main.c    **** 
 528:Src/main.c    **** /* USER CODE BEGIN 4 */
 529:Src/main.c    **** void HAL_UART_RxCpltCallback(UART_HandleTypeDef * huart)
 530:Src/main.c    **** {
 531:Src/main.c    **** 			if(dbus_rx_buffer == NULL)
 532:Src/main.c    **** 			{
 533:Src/main.c    **** 			  return;
 534:Src/main.c    **** 			}
 535:Src/main.c    **** 			RC_CtrlData.rc.ch0 = ((int16_t)dbus_rx_buffer[0] | ((int16_t)dbus_rx_buffer[1] << 8)) & 0x07FF;
 536:Src/main.c    **** 			RC_CtrlData.rc.ch1 = (((int16_t)dbus_rx_buffer[1] >> 3) | ((int16_t)dbus_rx_buffer[2] << 5))& 0x
 537:Src/main.c    **** 			RC_CtrlData.rc.ch2 = (((int16_t)dbus_rx_buffer[2] >> 6) | ((int16_t)dbus_rx_buffer[3] << 2) |((i
 538:Src/main.c    **** 			RC_CtrlData.rc.ch3 = (((int16_t)dbus_rx_buffer[4] >> 1) | ((int16_t)dbus_rx_buffer[5]<<7)) &0x07
 539:Src/main.c    ****  		  RC_CtrlData.rc.s1 = ((dbus_rx_buffer[5] >> 4) & 0x000C) >> 2;
 540:Src/main.c    ****    		RC_CtrlData.rc.s2 = ((dbus_rx_buffer[5] >> 4) & 0x0003);
 541:Src/main.c    **** 			// RC_CtrlData.mouse.x = ((int16_t)dbus_rx_buffer[6]) | ((int16_t)dbus_rx_buffer[7] << 8);
 542:Src/main.c    **** 			// RC_CtrlData.mouse.y = ((int16_t)dbus_rx_buffer[8]) | ((int16_t)dbus_rx_buffer[9] << 8);
 543:Src/main.c    **** 			// RC_CtrlData.mouse.z = ((int16_t)dbus_rx_buffer[10]) | ((int16_t)dbus_rx_buffer[11] << 8);
 544:Src/main.c    **** 			// RC_CtrlData.mouse.press_l = dbus_rx_buffer[12];
 545:Src/main.c    **** 			// RC_CtrlData.mouse.press_r = dbus_rx_buffer[13];
 546:Src/main.c    **** 			// RC_CtrlData.key.v = ((int16_t)dbus_rx_buffer[14]);// | ((int16_t)pData[15] << 8);
 547:Src/main.c    **** 			//HAL_UART_Receive_IT(&huart3, dbus_rx_buffer, 18);
ARM GAS  C:\Users\Administrator.DESKTOP-24M4MSA\AppData\Local\Temp\ccOsfb0b.s 			page 35


 548:Src/main.c    **** 			//HAL_UART_Receive_DMA(&huart3, dbus_rx_buffer, 18);
 549:Src/main.c    ****       Integrate_Control();
 550:Src/main.c    **** }
 551:Src/main.c    **** // void HAL_CAN_RxFIFO1MsgPendingCallback(CAN_HandleTypeDef *hcan){
 552:Src/main.c    **** //   for(int i=0;i<6;i++){
 553:Src/main.c    **** //     HAL_GPIO_TogglePin(GPIOC, GPIO_PIN_13);
 554:Src/main.c    **** //     HAL_Delay(200);
 555:Src/main.c    **** //   }
 556:Src/main.c    **** //   if (HAL_CAN_GetRxMessage(hcan, CAN_RX_FIFO1, &rxHeader, (uint8_t *)canRX) != HAL_OK){
 557:Src/main.c    **** //     Error_Handler();
 558:Src/main.c    **** //     HAL_CAN_ActivateNotification(hcan, CAN_IT_RX_FIFO1_MSG_PENDING);
 559:Src/main.c    **** //     canRxStatus = HAL_ERROR;
 560:Src/main.c    **** //   }
 561:Src/main.c    **** //   else{
 562:Src/main.c    **** //     // HAL_CAN_ActivateNotification(&hcan, CAN_IT_RX_FIFO1_MSG_PENDING);
 563:Src/main.c    **** //     switch(rxHeader.StdId){
 564:Src/main.c    **** //       case 0x201:{
 565:Src/main.c    **** //         current_rpm_A = -(1+~((canRX[2]<<8)+canRX[3]));
 566:Src/main.c    **** //         break;
 567:Src/main.c    **** //       }
 568:Src/main.c    **** //       case 0x202:{
 569:Src/main.c    **** //         current_rpm_B = -(1+~((canRX[2]<<8)+canRX[3]));
 570:Src/main.c    **** //         break;
 571:Src/main.c    **** //       }
 572:Src/main.c    **** //       case 0x203:{
 573:Src/main.c    **** //         current_rpm_C = -(1+~((canRX[2]<<8)+canRX[3]));
 574:Src/main.c    **** //         break;
 575:Src/main.c    **** //       }
 576:Src/main.c    **** //       case 0x204:{
 577:Src/main.c    **** //         current_rpm_D = -(1+~((canRX[2]<<8)+canRX[3]));
 578:Src/main.c    **** //         break;
 579:Src/main.c    **** //       }
 580:Src/main.c    **** //     }
 581:Src/main.c    **** //     CAN_Set_Motor_Voltage(pid_calc(&motorA,target_A,current_rpm_A),
 582:Src/main.c    **** //                           pid_calc(&motorB,target_B,current_rpm_B),
 583:Src/main.c    **** //                           pid_calc(&motorC,target_C,current_rpm_C),
 584:Src/main.c    **** //                           pid_calc(&motorD,target_D,current_rpm_D),
 585:Src/main.c    **** //                           msg);
 586:Src/main.c    **** //     canTxStatus = HAL_CAN_AddTxMessage(hcan, &txHeader, msg, &canMailbox);
 587:Src/main.c    **** //     HAL_Delay(5);
 588:Src/main.c    **** //     canRxStatus = HAL_OK;
 589:Src/main.c    **** //   }
 590:Src/main.c    **** // }
 591:Src/main.c    **** /* 
 592:Src/main.c    **** void HAL_CAN_RxFIFO1FullCallback(CAN_HandleTypeDef *hcan){
 593:Src/main.c    ****   for(int i=0;i<6;i++){
 594:Src/main.c    ****     HAL_GPIO_TogglePin(GPIOC, GPIO_PIN_13);
 595:Src/main.c    ****     HAL_Delay(200);
 596:Src/main.c    ****   }
 597:Src/main.c    ****   if (HAL_CAN_GetRxMessage(hcan, CAN_RX_FIFO1, &rxHeader, (uint8_t *)canRX) != HAL_OK){
 598:Src/main.c    ****     Error_Handler();
 599:Src/main.c    ****     HAL_CAN_ActivateNotification(hcan, CAN_IT_RX_FIFO1_MSG_PENDING);
 600:Src/main.c    ****     canRxStatus = HAL_ERROR;
 601:Src/main.c    ****   }
 602:Src/main.c    ****   else{
 603:Src/main.c    ****     switch(rxHeader.StdId){
 604:Src/main.c    ****       case 0x201:{
ARM GAS  C:\Users\Administrator.DESKTOP-24M4MSA\AppData\Local\Temp\ccOsfb0b.s 			page 36


 605:Src/main.c    ****         current_rpm_A = -(1+~((canRX[2]<<8)+canRX[3]));
 606:Src/main.c    ****         break;
 607:Src/main.c    ****       }
 608:Src/main.c    ****       case 0x202:{
 609:Src/main.c    ****         current_rpm_B = -(1+~((canRX[2]<<8)+canRX[3]));
 610:Src/main.c    ****         break;
 611:Src/main.c    ****       }
 612:Src/main.c    ****       case 0x203:{
 613:Src/main.c    ****         current_rpm_C = -(1+~((canRX[2]<<8)+canRX[3]));
 614:Src/main.c    ****         break;
 615:Src/main.c    ****       }
 616:Src/main.c    ****       case 0x204:{
 617:Src/main.c    ****         current_rpm_D = -(1+~((canRX[2]<<8)+canRX[3]));
 618:Src/main.c    ****         break;
 619:Src/main.c    ****       }
 620:Src/main.c    ****     }
 621:Src/main.c    ****     CAN_Set_Motor_Voltage(pid_calc(&motorA,target_A,current_rpm_A),
 622:Src/main.c    ****                           pid_calc(&motorB,target_B,current_rpm_B),
 623:Src/main.c    ****                           pid_calc(&motorC,target_C,current_rpm_C),
 624:Src/main.c    ****                           pid_calc(&motorD,target_D,current_rpm_D),
 625:Src/main.c    ****                           msg);
 626:Src/main.c    ****     canTxStatus = HAL_CAN_AddTxMessage(hcan, &txHeader, msg, &canMailbox);
 627:Src/main.c    ****     HAL_Delay(5);
 628:Src/main.c    ****     canRxStatus = HAL_OK;
 629:Src/main.c    ****     HAL_CAN_ActivateNotification(&hcan, CAN_IT_RX_FIFO1_MSG_PENDING);
 630:Src/main.c    ****   }
 631:Src/main.c    **** } */
 632:Src/main.c    **** void CAN_Set_Motor_Voltage(int16_t v1_, int16_t v2_, int16_t v3_, int16_t v4_, uint8_t target_buffe
 1117              		.loc 1 632 104 view -0
 1118              		.cfi_startproc
 1119              		@ args = 4, pretend = 0, frame = 0
 1120              		@ frame_needed = 0, uses_anonymous_args = 0
 1121              		@ link register save eliminated.
 1122              		.loc 1 632 104 is_stmt 0 view .LVU333
 1123 0000 10B4     		push	{r4}
 1124              	.LCFI20:
 1125              		.cfi_def_cfa_offset 4
 1126              		.cfi_offset 4, -4
 1127 0002 019C     		ldr	r4, [sp, #4]
 633:Src/main.c    ****   uint16_t v1=v1_,v2=v2_,v3=v3_,v4=v4_;
 1128              		.loc 1 633 3 is_stmt 1 view .LVU334
 1129              	.LVL49:
 634:Src/main.c    ****   target_buffer[0] = v1 >> 8;
 1130              		.loc 1 634 3 view .LVU335
 1131              		.loc 1 634 20 is_stmt 0 view .LVU336
 1132 0004 C0F3072C 		ubfx	ip, r0, #8, #8
 1133 0008 84F800C0 		strb	ip, [r4]
 635:Src/main.c    ****   target_buffer[1] = v1;
 1134              		.loc 1 635 3 is_stmt 1 view .LVU337
 1135              		.loc 1 635 20 is_stmt 0 view .LVU338
 1136 000c 6070     		strb	r0, [r4, #1]
 636:Src/main.c    ****   target_buffer[2] = v2 >> 8;
 1137              		.loc 1 636 3 is_stmt 1 view .LVU339
 1138              		.loc 1 636 20 is_stmt 0 view .LVU340
 1139 000e C1F30720 		ubfx	r0, r1, #8, #8
 1140              	.LVL50:
 1141              		.loc 1 636 20 view .LVU341
ARM GAS  C:\Users\Administrator.DESKTOP-24M4MSA\AppData\Local\Temp\ccOsfb0b.s 			page 37


 1142 0012 A070     		strb	r0, [r4, #2]
 637:Src/main.c    ****   target_buffer[3] = v2;
 1143              		.loc 1 637 3 is_stmt 1 view .LVU342
 1144              		.loc 1 637 20 is_stmt 0 view .LVU343
 1145 0014 E170     		strb	r1, [r4, #3]
 638:Src/main.c    ****   target_buffer[4] = v3 >> 8;
 1146              		.loc 1 638 3 is_stmt 1 view .LVU344
 1147              		.loc 1 638 20 is_stmt 0 view .LVU345
 1148 0016 C2F30721 		ubfx	r1, r2, #8, #8
 1149              	.LVL51:
 1150              		.loc 1 638 20 view .LVU346
 1151 001a 2171     		strb	r1, [r4, #4]
 639:Src/main.c    ****   target_buffer[5] = v3;
 1152              		.loc 1 639 3 is_stmt 1 view .LVU347
 1153              		.loc 1 639 20 is_stmt 0 view .LVU348
 1154 001c 6271     		strb	r2, [r4, #5]
 640:Src/main.c    ****   target_buffer[6] = v4 >> 8;
 1155              		.loc 1 640 3 is_stmt 1 view .LVU349
 1156              		.loc 1 640 20 is_stmt 0 view .LVU350
 1157 001e C3F30722 		ubfx	r2, r3, #8, #8
 1158              	.LVL52:
 1159              		.loc 1 640 20 view .LVU351
 1160 0022 A271     		strb	r2, [r4, #6]
 641:Src/main.c    ****   target_buffer[7] = v4;
 1161              		.loc 1 641 3 is_stmt 1 view .LVU352
 1162              		.loc 1 641 20 is_stmt 0 view .LVU353
 1163 0024 E371     		strb	r3, [r4, #7]
 642:Src/main.c    ****   return;
 1164              		.loc 1 642 3 is_stmt 1 view .LVU354
 643:Src/main.c    **** }
 1165              		.loc 1 643 1 is_stmt 0 view .LVU355
 1166 0026 10BC     		pop	{r4}
 1167              	.LCFI21:
 1168              		.cfi_restore 4
 1169              		.cfi_def_cfa_offset 0
 1170              	.LVL53:
 1171              		.loc 1 643 1 view .LVU356
 1172 0028 7047     		bx	lr
 1173              		.cfi_endproc
 1174              	.LFE75:
 1176              		.global	__aeabi_i2d
 1177              		.global	__aeabi_dmul
 1178              		.global	__aeabi_dsub
 1179              		.global	__aeabi_d2iz
 1180              		.global	__aeabi_i2f
 1181              		.global	__aeabi_f2iz
 1182              		.section	.text.Integrate_Control,"ax",%progbits
 1183              		.align	1
 1184              		.global	Integrate_Control
 1185              		.syntax unified
 1186              		.thumb
 1187              		.thumb_func
 1188              		.fpu softvfp
 1190              	Integrate_Control:
 1191              	.LFB76:
 644:Src/main.c    **** void Integrate_Control(){
 1192              		.loc 1 644 25 is_stmt 1 view -0
ARM GAS  C:\Users\Administrator.DESKTOP-24M4MSA\AppData\Local\Temp\ccOsfb0b.s 			page 38


 1193              		.cfi_startproc
 1194              		@ args = 0, pretend = 0, frame = 0
 1195              		@ frame_needed = 0, uses_anonymous_args = 0
 1196 0000 2DE9F043 		push	{r4, r5, r6, r7, r8, r9, lr}
 1197              	.LCFI22:
 1198              		.cfi_def_cfa_offset 28
 1199              		.cfi_offset 4, -28
 1200              		.cfi_offset 5, -24
 1201              		.cfi_offset 6, -20
 1202              		.cfi_offset 7, -16
 1203              		.cfi_offset 8, -12
 1204              		.cfi_offset 9, -8
 1205              		.cfi_offset 14, -4
 1206 0004 83B0     		sub	sp, sp, #12
 1207              	.LCFI23:
 1208              		.cfi_def_cfa_offset 40
 645:Src/main.c    ****       int vv,vp,vr;
 1209              		.loc 1 645 7 view .LVU358
 646:Src/main.c    ****       vv=(RC_CtrlData.rc.ch3-1024)*5;
 1210              		.loc 1 646 7 view .LVU359
 1211              		.loc 1 646 25 is_stmt 0 view .LVU360
 1212 0006 684B     		ldr	r3, .L47+24
 1213 0008 DC88     		ldrh	r4, [r3, #6]
 1214              		.loc 1 646 29 view .LVU361
 1215 000a A4F58064 		sub	r4, r4, #1024
 1216              		.loc 1 646 9 view .LVU362
 1217 000e 04EB8404 		add	r4, r4, r4, lsl #2
 1218              	.LVL54:
 647:Src/main.c    ****       vp=(RC_CtrlData.rc.ch2-1024)*5;
 1219              		.loc 1 647 7 is_stmt 1 view .LVU363
 1220              		.loc 1 647 25 is_stmt 0 view .LVU364
 1221 0012 B3F80490 		ldrh	r9, [r3, #4]
 1222              		.loc 1 647 29 view .LVU365
 1223 0016 A9F58069 		sub	r9, r9, #1024
 1224              		.loc 1 647 9 view .LVU366
 1225 001a 09EB8909 		add	r9, r9, r9, lsl #2
 1226              	.LVL55:
 648:Src/main.c    ****       vr=(RC_CtrlData.rc.ch0-1024)*3;
 1227              		.loc 1 648 7 is_stmt 1 view .LVU367
 1228              		.loc 1 648 25 is_stmt 0 view .LVU368
 1229 001e 1888     		ldrh	r0, [r3]
 1230              		.loc 1 648 29 view .LVU369
 1231 0020 A0F58060 		sub	r0, r0, #1024
 1232              		.loc 1 648 9 view .LVU370
 1233 0024 00EB4005 		add	r5, r0, r0, lsl #1
 1234              	.LVL56:
 649:Src/main.c    ****       vr-=vp*0.04;
 1235              		.loc 1 649 7 is_stmt 1 view .LVU371
 1236              		.loc 1 649 13 is_stmt 0 view .LVU372
 1237 0028 4846     		mov	r0, r9
 1238 002a FFF7FEFF 		bl	__aeabi_i2d
 1239              	.LVL57:
 1240 002e 58A3     		adr	r3, .L47
 1241 0030 D3E90023 		ldrd	r2, [r3]
 1242 0034 FFF7FEFF 		bl	__aeabi_dmul
 1243              	.LVL58:
 1244 0038 0646     		mov	r6, r0
ARM GAS  C:\Users\Administrator.DESKTOP-24M4MSA\AppData\Local\Temp\ccOsfb0b.s 			page 39


 1245 003a 0F46     		mov	r7, r1
 1246              		.loc 1 649 9 view .LVU373
 1247 003c 2846     		mov	r0, r5
 1248 003e FFF7FEFF 		bl	__aeabi_i2d
 1249              	.LVL59:
 1250 0042 3246     		mov	r2, r6
 1251 0044 3B46     		mov	r3, r7
 1252 0046 FFF7FEFF 		bl	__aeabi_dsub
 1253              	.LVL60:
 1254 004a FFF7FEFF 		bl	__aeabi_d2iz
 1255              	.LVL61:
 1256 004e 0546     		mov	r5, r0
 1257              	.LVL62:
 650:Src/main.c    ****       target_A=(vv+vp+vr)*(1.8);
 1258              		.loc 1 650 7 is_stmt 1 view .LVU374
 1259              		.loc 1 650 19 is_stmt 0 view .LVU375
 1260 0050 04EB0900 		add	r0, r4, r9
 1261              	.LVL63:
 1262              		.loc 1 650 26 view .LVU376
 1263 0054 2844     		add	r0, r0, r5
 1264 0056 FFF7FEFF 		bl	__aeabi_i2d
 1265              	.LVL64:
 1266 005a 4FA3     		adr	r3, .L47+8
 1267 005c D3E90023 		ldrd	r2, [r3]
 1268 0060 FFF7FEFF 		bl	__aeabi_dmul
 1269              	.LVL65:
 1270              		.loc 1 650 15 view .LVU377
 1271 0064 FFF7FEFF 		bl	__aeabi_d2iz
 1272              	.LVL66:
 1273 0068 00B2     		sxth	r0, r0
 1274 006a 504F     		ldr	r7, .L47+28
 1275 006c 3880     		strh	r0, [r7]	@ movhi
 651:Src/main.c    ****       target_B=(vv-vp-vr)*(-1.7);
 1276              		.loc 1 651 7 is_stmt 1 view .LVU378
 1277              		.loc 1 651 19 is_stmt 0 view .LVU379
 1278 006e A4EB0908 		sub	r8, r4, r9
 1279              		.loc 1 651 26 view .LVU380
 1280 0072 A8EB0500 		sub	r0, r8, r5
 1281 0076 FFF7FEFF 		bl	__aeabi_i2d
 1282              	.LVL67:
 1283 007a 49A3     		adr	r3, .L47+16
 1284 007c D3E90023 		ldrd	r2, [r3]
 1285 0080 FFF7FEFF 		bl	__aeabi_dmul
 1286              	.LVL68:
 1287              		.loc 1 651 15 view .LVU381
 1288 0084 FFF7FEFF 		bl	__aeabi_d2iz
 1289              	.LVL69:
 1290 0088 00B2     		sxth	r0, r0
 1291 008a 494E     		ldr	r6, .L47+32
 1292 008c 3080     		strh	r0, [r6]	@ movhi
 652:Src/main.c    ****       target_C=(vv+vp-vr)*(-1);
 1293              		.loc 1 652 7 is_stmt 1 view .LVU382
 1294              		.loc 1 652 19 is_stmt 0 view .LVU383
 1295 008e 4C44     		add	r4, r4, r9
 1296              	.LVL70:
 1297              		.loc 1 652 19 view .LVU384
 1298 0090 A4B2     		uxth	r4, r4
ARM GAS  C:\Users\Administrator.DESKTOP-24M4MSA\AppData\Local\Temp\ccOsfb0b.s 			page 40


 1299              		.loc 1 652 26 view .LVU385
 1300 0092 2C1B     		subs	r4, r5, r4
 1301 0094 24B2     		sxth	r4, r4
 1302              		.loc 1 652 15 view .LVU386
 1303 0096 DFF81C91 		ldr	r9, .L47+36
 1304              	.LVL71:
 1305              		.loc 1 652 15 view .LVU387
 1306 009a A9F80040 		strh	r4, [r9]	@ movhi
 653:Src/main.c    ****       target_D=(vv-vp+vr)*(1.5);
 1307              		.loc 1 653 7 is_stmt 1 view .LVU388
 1308              		.loc 1 653 26 is_stmt 0 view .LVU389
 1309 009e 08EB0500 		add	r0, r8, r5
 1310 00a2 FFF7FEFF 		bl	__aeabi_i2d
 1311              	.LVL72:
 1312 00a6 0022     		movs	r2, #0
 1313 00a8 434B     		ldr	r3, .L47+40
 1314 00aa FFF7FEFF 		bl	__aeabi_dmul
 1315              	.LVL73:
 1316              		.loc 1 653 15 view .LVU390
 1317 00ae FFF7FEFF 		bl	__aeabi_d2iz
 1318              	.LVL74:
 1319 00b2 00B2     		sxth	r0, r0
 1320 00b4 DFF80481 		ldr	r8, .L47+44
 1321 00b8 A8F80000 		strh	r0, [r8]	@ movhi
 654:Src/main.c    ****       CAN_Set_Motor_Voltage(pid_calc(&motorA,target_A,current_rpm_A),
 1322              		.loc 1 654 7 is_stmt 1 view .LVU391
 1323              		.loc 1 654 29 is_stmt 0 view .LVU392
 1324 00bc 3D88     		ldrh	r5, [r7]
 1325              	.LVL75:
 1326              		.loc 1 654 29 view .LVU393
 1327 00be 2DB2     		sxth	r5, r5
 1328 00c0 3F4B     		ldr	r3, .L47+48
 1329 00c2 1888     		ldrh	r0, [r3]
 1330 00c4 00B2     		sxth	r0, r0
 1331 00c6 FFF7FEFF 		bl	__aeabi_i2f
 1332              	.LVL76:
 1333 00ca 0446     		mov	r4, r0
 1334 00cc 2846     		mov	r0, r5
 1335 00ce FFF7FEFF 		bl	__aeabi_i2f
 1336              	.LVL77:
 1337 00d2 0146     		mov	r1, r0
 1338 00d4 2246     		mov	r2, r4
 1339 00d6 3B48     		ldr	r0, .L47+52
 1340 00d8 FFF7FEFF 		bl	pid_calc
 1341              	.LVL78:
 1342 00dc 0746     		mov	r7, r0
 655:Src/main.c    ****                           pid_calc(&motorB,target_B,current_rpm_B),
 1343              		.loc 1 655 27 view .LVU394
 1344 00de 3588     		ldrh	r5, [r6]
 1345 00e0 2DB2     		sxth	r5, r5
 1346 00e2 394B     		ldr	r3, .L47+56
 1347 00e4 1888     		ldrh	r0, [r3]
 1348 00e6 00B2     		sxth	r0, r0
 1349 00e8 FFF7FEFF 		bl	__aeabi_i2f
 1350              	.LVL79:
 1351 00ec 0446     		mov	r4, r0
 1352 00ee 2846     		mov	r0, r5
ARM GAS  C:\Users\Administrator.DESKTOP-24M4MSA\AppData\Local\Temp\ccOsfb0b.s 			page 41


 1353 00f0 FFF7FEFF 		bl	__aeabi_i2f
 1354              	.LVL80:
 1355 00f4 0146     		mov	r1, r0
 1356 00f6 2246     		mov	r2, r4
 1357 00f8 3448     		ldr	r0, .L47+60
 1358 00fa FFF7FEFF 		bl	pid_calc
 1359              	.LVL81:
 1360 00fe 0446     		mov	r4, r0
 656:Src/main.c    ****                           pid_calc(&motorC,target_C,current_rpm_C),
 1361              		.loc 1 656 27 view .LVU395
 1362 0100 B9F80060 		ldrh	r6, [r9]
 1363 0104 36B2     		sxth	r6, r6
 1364 0106 324B     		ldr	r3, .L47+64
 1365 0108 1888     		ldrh	r0, [r3]
 1366 010a 00B2     		sxth	r0, r0
 1367 010c FFF7FEFF 		bl	__aeabi_i2f
 1368              	.LVL82:
 1369 0110 0546     		mov	r5, r0
 1370 0112 3046     		mov	r0, r6
 1371 0114 FFF7FEFF 		bl	__aeabi_i2f
 1372              	.LVL83:
 1373 0118 0146     		mov	r1, r0
 1374 011a 2A46     		mov	r2, r5
 1375 011c 2D48     		ldr	r0, .L47+68
 1376 011e FFF7FEFF 		bl	pid_calc
 1377              	.LVL84:
 1378 0122 0546     		mov	r5, r0
 657:Src/main.c    ****                           pid_calc(&motorD,target_D,current_rpm_D),
 1379              		.loc 1 657 27 view .LVU396
 1380 0124 B8F80080 		ldrh	r8, [r8]
 1381 0128 0FFA88F8 		sxth	r8, r8
 1382 012c 2A4B     		ldr	r3, .L47+72
 1383 012e 1888     		ldrh	r0, [r3]
 1384 0130 00B2     		sxth	r0, r0
 1385 0132 FFF7FEFF 		bl	__aeabi_i2f
 1386              	.LVL85:
 1387 0136 0646     		mov	r6, r0
 1388 0138 4046     		mov	r0, r8
 1389 013a FFF7FEFF 		bl	__aeabi_i2f
 1390              	.LVL86:
 1391 013e 0146     		mov	r1, r0
 1392 0140 3246     		mov	r2, r6
 1393 0142 2648     		ldr	r0, .L47+76
 1394 0144 FFF7FEFF 		bl	pid_calc
 1395              	.LVL87:
 654:Src/main.c    ****                           pid_calc(&motorB,target_B,current_rpm_B),
 1396              		.loc 1 654 7 view .LVU397
 1397 0148 FFF7FEFF 		bl	__aeabi_f2iz
 1398              	.LVL88:
 1399 014c 06B2     		sxth	r6, r0
 1400 014e 2846     		mov	r0, r5
 1401 0150 FFF7FEFF 		bl	__aeabi_f2iz
 1402              	.LVL89:
 1403 0154 05B2     		sxth	r5, r0
 1404 0156 2046     		mov	r0, r4
 1405 0158 FFF7FEFF 		bl	__aeabi_f2iz
 1406              	.LVL90:
ARM GAS  C:\Users\Administrator.DESKTOP-24M4MSA\AppData\Local\Temp\ccOsfb0b.s 			page 42


 1407 015c 04B2     		sxth	r4, r0
 1408 015e 3846     		mov	r0, r7
 1409 0160 FFF7FEFF 		bl	__aeabi_f2iz
 1410              	.LVL91:
 1411 0164 1E4F     		ldr	r7, .L47+80
 1412 0166 0097     		str	r7, [sp]
 1413 0168 3346     		mov	r3, r6
 1414 016a 2A46     		mov	r2, r5
 1415 016c 2146     		mov	r1, r4
 1416 016e 00B2     		sxth	r0, r0
 1417 0170 FFF7FEFF 		bl	CAN_Set_Motor_Voltage
 1418              	.LVL92:
 658:Src/main.c    ****                           msg);
 659:Src/main.c    ****      canTxStatus = HAL_CAN_AddTxMessage(&hcan, &txHeader, msg, &canMailbox);
 1419              		.loc 1 659 6 is_stmt 1 view .LVU398
 1420              		.loc 1 659 20 is_stmt 0 view .LVU399
 1421 0174 1B4B     		ldr	r3, .L47+84
 1422 0176 3A46     		mov	r2, r7
 1423 0178 1B49     		ldr	r1, .L47+88
 1424 017a 1C48     		ldr	r0, .L47+92
 1425 017c FFF7FEFF 		bl	HAL_CAN_AddTxMessage
 1426              	.LVL93:
 1427              		.loc 1 659 18 view .LVU400
 1428 0180 1B4B     		ldr	r3, .L47+96
 1429 0182 1870     		strb	r0, [r3]
 660:Src/main.c    ****   // switch(RC_CtrlData.rc.s2){
 661:Src/main.c    ****   //   case 1:{
 662:Src/main.c    ****   //     //A=2, B=-1.5, C=-1. D=17/12
 663:Src/main.c    ****   //     int vv,vp,vr;
 664:Src/main.c    ****   //     vv=(RC_CtrlData.rc.ch3-1024)*4;
 665:Src/main.c    ****   //     vp=(RC_CtrlData.rc.ch2-1024)*4;
 666:Src/main.c    ****   //     vr=(RC_CtrlData.rc.ch0-1024)*4;
 667:Src/main.c    ****   //     vr-=vp*0.04;
 668:Src/main.c    ****   //     target_A=(vv+vp+vr)*(1.8);
 669:Src/main.c    ****   //     target_B=(vv-vp-vr)*(-1.7);
 670:Src/main.c    ****   //     target_C=(vv+vp-vr)*(-1);
 671:Src/main.c    ****   //     target_D=(vv-vp+vr)*(1.5);
 672:Src/main.c    ****   //     CAN_Set_Motor_Voltage(pid_calc(&motorA,target_A,current_rpm_A),
 673:Src/main.c    ****   //                         pid_calc(&motorB,target_B,current_rpm_B),
 674:Src/main.c    ****   //                         pid_calc(&motorC,target_C,current_rpm_C),
 675:Src/main.c    ****   //                         pid_calc(&motorD,target_D,current_rpm_D),
 676:Src/main.c    ****   //                         msg);
 677:Src/main.c    ****   //     canTxStatus = HAL_CAN_AddTxMessage(&hcan, &txHeader, msg, &canMailbox);
 678:Src/main.c    ****   //     break;
 679:Src/main.c    ****   //   }
 680:Src/main.c    ****   //   case 3:{
 681:Src/main.c    ****   //     int vp=(RC_CtrlData.rc.ch0-1024)*0.2;
 682:Src/main.c    ****   //     target_A=vp*(1.8);
 683:Src/main.c    ****   //     target_B=vp*(1.7);
 684:Src/main.c    ****   //     target_C=vp*(-1);
 685:Src/main.c    ****   //     target_D=vp*(-1.5);
 686:Src/main.c    ****   //     CAN_Set_Motor_Voltage(pid_calc(&motorA,target_A,current_rpm_A),
 687:Src/main.c    ****   //                         pid_calc(&motorB,target_B,current_rpm_B),
 688:Src/main.c    ****   //                         pid_calc(&motorC,target_C,current_rpm_C),
 689:Src/main.c    ****   //                         pid_calc(&motorD,target_D,current_rpm_D),
 690:Src/main.c    ****   //                         msg);
 691:Src/main.c    ****   //     canTxStatus = HAL_CAN_AddTxMessage(&hcan, &txHeader, msg, &canMailbox);
ARM GAS  C:\Users\Administrator.DESKTOP-24M4MSA\AppData\Local\Temp\ccOsfb0b.s 			page 43


 692:Src/main.c    ****   //     vf=(RC_CtrlData.rc.ch3>1034)?1:((RC_CtrlData.rc.ch3<1014)?-1:0);
 693:Src/main.c    ****   //     vr=(RC_CtrlData.rc.ch2>1034)?130:((RC_CtrlData.rc.ch2<1014)?170:150);
 694:Src/main.c    ****   //     vz=(RC_CtrlData.rc.ch1>1034)?1:((RC_CtrlData.rc.ch1<1014)?-1:0);
 695:Src/main.c    ****   //     break;
 696:Src/main.c    ****   //   }
 697:Src/main.c    ****   // }
 698:Src/main.c    **** }
 1430              		.loc 1 698 1 view .LVU401
 1431 0184 03B0     		add	sp, sp, #12
 1432              	.LCFI24:
 1433              		.cfi_def_cfa_offset 28
 1434              		@ sp needed
 1435 0186 BDE8F083 		pop	{r4, r5, r6, r7, r8, r9, pc}
 1436              	.L48:
 1437 018a 00BFAFF3 		.align	3
 1437      0080
 1438              	.L47:
 1439 0190 7B14AE47 		.word	1202590843
 1440 0194 E17AA43F 		.word	1067743969
 1441 0198 CDCCCCCC 		.word	-858993459
 1442 019c CCCCFC3F 		.word	1073532108
 1443 01a0 33333333 		.word	858993459
 1444 01a4 3333FBBF 		.word	-1074056397
 1445 01a8 00000000 		.word	.LANCHOR19
 1446 01ac 00000000 		.word	.LANCHOR20
 1447 01b0 00000000 		.word	.LANCHOR21
 1448 01b4 00000000 		.word	.LANCHOR22
 1449 01b8 0000F83F 		.word	1073217536
 1450 01bc 00000000 		.word	.LANCHOR23
 1451 01c0 00000000 		.word	.LANCHOR15
 1452 01c4 00000000 		.word	.LANCHOR6
 1453 01c8 00000000 		.word	.LANCHOR16
 1454 01cc 00000000 		.word	.LANCHOR7
 1455 01d0 00000000 		.word	.LANCHOR17
 1456 01d4 00000000 		.word	.LANCHOR8
 1457 01d8 00000000 		.word	.LANCHOR18
 1458 01dc 00000000 		.word	.LANCHOR9
 1459 01e0 00000000 		.word	.LANCHOR24
 1460 01e4 00000000 		.word	.LANCHOR25
 1461 01e8 00000000 		.word	.LANCHOR5
 1462 01ec 00000000 		.word	.LANCHOR2
 1463 01f0 00000000 		.word	.LANCHOR26
 1464              		.cfi_endproc
 1465              	.LFE76:
 1467              		.section	.text.HAL_UART_RxCpltCallback,"ax",%progbits
 1468              		.align	1
 1469              		.global	HAL_UART_RxCpltCallback
 1470              		.syntax unified
 1471              		.thumb
 1472              		.thumb_func
 1473              		.fpu softvfp
 1475              	HAL_UART_RxCpltCallback:
 1476              	.LVL94:
 1477              	.LFB74:
 530:Src/main.c    **** 			if(dbus_rx_buffer == NULL)
 1478              		.loc 1 530 1 is_stmt 1 view -0
 1479              		.cfi_startproc
ARM GAS  C:\Users\Administrator.DESKTOP-24M4MSA\AppData\Local\Temp\ccOsfb0b.s 			page 44


 1480              		@ args = 0, pretend = 0, frame = 0
 1481              		@ frame_needed = 0, uses_anonymous_args = 0
 530:Src/main.c    **** 			if(dbus_rx_buffer == NULL)
 1482              		.loc 1 530 1 is_stmt 0 view .LVU403
 1483 0000 08B5     		push	{r3, lr}
 1484              	.LCFI25:
 1485              		.cfi_def_cfa_offset 8
 1486              		.cfi_offset 3, -8
 1487              		.cfi_offset 14, -4
 531:Src/main.c    **** 			{
 1488              		.loc 1 531 4 is_stmt 1 view .LVU404
 535:Src/main.c    **** 			RC_CtrlData.rc.ch1 = (((int16_t)dbus_rx_buffer[1] >> 3) | ((int16_t)dbus_rx_buffer[2] << 5))& 0x
 1489              		.loc 1 535 4 view .LVU405
 535:Src/main.c    **** 			RC_CtrlData.rc.ch1 = (((int16_t)dbus_rx_buffer[1] >> 3) | ((int16_t)dbus_rx_buffer[2] << 5))& 0x
 1490              		.loc 1 535 49 is_stmt 0 view .LVU406
 1491 0002 1448     		ldr	r0, .L51
 1492              	.LVL95:
 535:Src/main.c    **** 			RC_CtrlData.rc.ch1 = (((int16_t)dbus_rx_buffer[1] >> 3) | ((int16_t)dbus_rx_buffer[2] << 5))& 0x
 1493              		.loc 1 535 49 view .LVU407
 1494 0004 0378     		ldrb	r3, [r0]	@ zero_extendqisi2
 535:Src/main.c    **** 			RC_CtrlData.rc.ch1 = (((int16_t)dbus_rx_buffer[1] >> 3) | ((int16_t)dbus_rx_buffer[2] << 5))& 0x
 1495              		.loc 1 535 79 view .LVU408
 1496 0006 4278     		ldrb	r2, [r0, #1]	@ zero_extendqisi2
 535:Src/main.c    **** 			RC_CtrlData.rc.ch1 = (((int16_t)dbus_rx_buffer[1] >> 3) | ((int16_t)dbus_rx_buffer[2] << 5))& 0x
 1497              		.loc 1 535 53 view .LVU409
 1498 0008 43EA0223 		orr	r3, r3, r2, lsl #8
 535:Src/main.c    **** 			RC_CtrlData.rc.ch1 = (((int16_t)dbus_rx_buffer[1] >> 3) | ((int16_t)dbus_rx_buffer[2] << 5))& 0x
 1499              		.loc 1 535 90 view .LVU410
 1500 000c C3F30A03 		ubfx	r3, r3, #0, #11
 535:Src/main.c    **** 			RC_CtrlData.rc.ch1 = (((int16_t)dbus_rx_buffer[1] >> 3) | ((int16_t)dbus_rx_buffer[2] << 5))& 0x
 1501              		.loc 1 535 23 view .LVU411
 1502 0010 1149     		ldr	r1, .L51+4
 1503 0012 0B80     		strh	r3, [r1]	@ movhi
 536:Src/main.c    **** 			RC_CtrlData.rc.ch2 = (((int16_t)dbus_rx_buffer[2] >> 6) | ((int16_t)dbus_rx_buffer[3] << 2) |((i
 1504              		.loc 1 536 4 is_stmt 1 view .LVU412
 536:Src/main.c    **** 			RC_CtrlData.rc.ch2 = (((int16_t)dbus_rx_buffer[2] >> 6) | ((int16_t)dbus_rx_buffer[3] << 2) |((i
 1505              		.loc 1 536 86 is_stmt 0 view .LVU413
 1506 0014 8378     		ldrb	r3, [r0, #2]	@ zero_extendqisi2
 536:Src/main.c    **** 			RC_CtrlData.rc.ch2 = (((int16_t)dbus_rx_buffer[2] >> 6) | ((int16_t)dbus_rx_buffer[3] << 2) |((i
 1507              		.loc 1 536 60 view .LVU414
 1508 0016 D208     		lsrs	r2, r2, #3
 1509 0018 42EA4312 		orr	r2, r2, r3, lsl #5
 536:Src/main.c    **** 			RC_CtrlData.rc.ch2 = (((int16_t)dbus_rx_buffer[2] >> 6) | ((int16_t)dbus_rx_buffer[3] << 2) |((i
 1510              		.loc 1 536 96 view .LVU415
 1511 001c C2F30A02 		ubfx	r2, r2, #0, #11
 536:Src/main.c    **** 			RC_CtrlData.rc.ch2 = (((int16_t)dbus_rx_buffer[2] >> 6) | ((int16_t)dbus_rx_buffer[3] << 2) |((i
 1512              		.loc 1 536 23 view .LVU416
 1513 0020 4A80     		strh	r2, [r1, #2]	@ movhi
 537:Src/main.c    **** 			RC_CtrlData.rc.ch3 = (((int16_t)dbus_rx_buffer[4] >> 1) | ((int16_t)dbus_rx_buffer[5]<<7)) &0x07
 1514              		.loc 1 537 4 is_stmt 1 view .LVU417
 537:Src/main.c    **** 			RC_CtrlData.rc.ch3 = (((int16_t)dbus_rx_buffer[4] >> 1) | ((int16_t)dbus_rx_buffer[5]<<7)) &0x07
 1515              		.loc 1 537 86 is_stmt 0 view .LVU418
 1516 0022 C278     		ldrb	r2, [r0, #3]	@ zero_extendqisi2
 537:Src/main.c    **** 			RC_CtrlData.rc.ch3 = (((int16_t)dbus_rx_buffer[4] >> 1) | ((int16_t)dbus_rx_buffer[5]<<7)) &0x07
 1517              		.loc 1 537 60 view .LVU419
 1518 0024 9B09     		lsrs	r3, r3, #6
 1519 0026 43EA8203 		orr	r3, r3, r2, lsl #2
ARM GAS  C:\Users\Administrator.DESKTOP-24M4MSA\AppData\Local\Temp\ccOsfb0b.s 			page 45


 537:Src/main.c    **** 			RC_CtrlData.rc.ch3 = (((int16_t)dbus_rx_buffer[4] >> 1) | ((int16_t)dbus_rx_buffer[5]<<7)) &0x07
 1520              		.loc 1 537 121 view .LVU420
 1521 002a 0279     		ldrb	r2, [r0, #4]	@ zero_extendqisi2
 537:Src/main.c    **** 			RC_CtrlData.rc.ch3 = (((int16_t)dbus_rx_buffer[4] >> 1) | ((int16_t)dbus_rx_buffer[5]<<7)) &0x07
 1522              		.loc 1 537 96 view .LVU421
 1523 002c 43EA8223 		orr	r3, r3, r2, lsl #10
 537:Src/main.c    **** 			RC_CtrlData.rc.ch3 = (((int16_t)dbus_rx_buffer[4] >> 1) | ((int16_t)dbus_rx_buffer[5]<<7)) &0x07
 1524              		.loc 1 537 133 view .LVU422
 1525 0030 C3F30A03 		ubfx	r3, r3, #0, #11
 537:Src/main.c    **** 			RC_CtrlData.rc.ch3 = (((int16_t)dbus_rx_buffer[4] >> 1) | ((int16_t)dbus_rx_buffer[5]<<7)) &0x07
 1526              		.loc 1 537 23 view .LVU423
 1527 0034 8B80     		strh	r3, [r1, #4]	@ movhi
 538:Src/main.c    ****  		  RC_CtrlData.rc.s1 = ((dbus_rx_buffer[5] >> 4) & 0x000C) >> 2;
 1528              		.loc 1 538 4 is_stmt 1 view .LVU424
 538:Src/main.c    ****  		  RC_CtrlData.rc.s1 = ((dbus_rx_buffer[5] >> 4) & 0x000C) >> 2;
 1529              		.loc 1 538 86 is_stmt 0 view .LVU425
 1530 0036 4379     		ldrb	r3, [r0, #5]	@ zero_extendqisi2
 538:Src/main.c    ****  		  RC_CtrlData.rc.s1 = ((dbus_rx_buffer[5] >> 4) & 0x000C) >> 2;
 1531              		.loc 1 538 60 view .LVU426
 1532 0038 5208     		lsrs	r2, r2, #1
 1533 003a 42EAC312 		orr	r2, r2, r3, lsl #7
 538:Src/main.c    ****  		  RC_CtrlData.rc.s1 = ((dbus_rx_buffer[5] >> 4) & 0x000C) >> 2;
 1534              		.loc 1 538 95 view .LVU427
 1535 003e C2F30A02 		ubfx	r2, r2, #0, #11
 538:Src/main.c    ****  		  RC_CtrlData.rc.s1 = ((dbus_rx_buffer[5] >> 4) & 0x000C) >> 2;
 1536              		.loc 1 538 23 view .LVU428
 1537 0042 CA80     		strh	r2, [r1, #6]	@ movhi
 539:Src/main.c    ****    		RC_CtrlData.rc.s2 = ((dbus_rx_buffer[5] >> 4) & 0x0003);
 1538              		.loc 1 539 6 is_stmt 1 view .LVU429
 539:Src/main.c    ****    		RC_CtrlData.rc.s2 = ((dbus_rx_buffer[5] >> 4) & 0x0003);
 1539              		.loc 1 539 62 is_stmt 0 view .LVU430
 1540 0044 9A09     		lsrs	r2, r3, #6
 539:Src/main.c    ****    		RC_CtrlData.rc.s2 = ((dbus_rx_buffer[5] >> 4) & 0x0003);
 1541              		.loc 1 539 24 view .LVU431
 1542 0046 0A72     		strb	r2, [r1, #8]
 540:Src/main.c    **** 			// RC_CtrlData.mouse.x = ((int16_t)dbus_rx_buffer[6]) | ((int16_t)dbus_rx_buffer[7] << 8);
 1543              		.loc 1 540 6 is_stmt 1 view .LVU432
 540:Src/main.c    **** 			// RC_CtrlData.mouse.x = ((int16_t)dbus_rx_buffer[6]) | ((int16_t)dbus_rx_buffer[7] << 8);
 1544              		.loc 1 540 52 is_stmt 0 view .LVU433
 1545 0048 C3F30113 		ubfx	r3, r3, #4, #2
 540:Src/main.c    **** 			// RC_CtrlData.mouse.x = ((int16_t)dbus_rx_buffer[6]) | ((int16_t)dbus_rx_buffer[7] << 8);
 1546              		.loc 1 540 24 view .LVU434
 1547 004c 4B72     		strb	r3, [r1, #9]
 549:Src/main.c    **** }
 1548              		.loc 1 549 7 is_stmt 1 view .LVU435
 1549 004e FFF7FEFF 		bl	Integrate_Control
 1550              	.LVL96:
 550:Src/main.c    **** // void HAL_CAN_RxFIFO1MsgPendingCallback(CAN_HandleTypeDef *hcan){
 1551              		.loc 1 550 1 is_stmt 0 view .LVU436
 1552 0052 08BD     		pop	{r3, pc}
 1553              	.L52:
 1554              		.align	2
 1555              	.L51:
 1556 0054 00000000 		.word	.LANCHOR11
 1557 0058 00000000 		.word	.LANCHOR19
 1558              		.cfi_endproc
 1559              	.LFE74:
ARM GAS  C:\Users\Administrator.DESKTOP-24M4MSA\AppData\Local\Temp\ccOsfb0b.s 			page 46


 1561              		.section	.text.Error_Handler,"ax",%progbits
 1562              		.align	1
 1563              		.global	Error_Handler
 1564              		.syntax unified
 1565              		.thumb
 1566              		.thumb_func
 1567              		.fpu softvfp
 1569              	Error_Handler:
 1570              	.LFB77:
 699:Src/main.c    **** /* USER CODE END 4 */
 700:Src/main.c    **** 
 701:Src/main.c    **** /**
 702:Src/main.c    ****   * @brief  This function is executed in case of error occurrence.
 703:Src/main.c    ****   * @retval None
 704:Src/main.c    ****   */
 705:Src/main.c    **** void Error_Handler(void)
 706:Src/main.c    **** {
 1571              		.loc 1 706 1 is_stmt 1 view -0
 1572              		.cfi_startproc
 1573              		@ args = 0, pretend = 0, frame = 0
 1574              		@ frame_needed = 0, uses_anonymous_args = 0
 1575              		@ link register save eliminated.
 707:Src/main.c    ****   /* USER CODE BEGIN Error_Handler_Debug */
 708:Src/main.c    ****   /* User can add his own implementation to report the HAL error return state */
 709:Src/main.c    ****   /* USER CODE END Error_Handler_Debug */
 710:Src/main.c    **** }
 1576              		.loc 1 710 1 view .LVU438
 1577 0000 7047     		bx	lr
 1578              		.cfi_endproc
 1579              	.LFE77:
 1581              		.global	arm
 1582              		.global	motorD
 1583              		.global	motorC
 1584              		.global	motorB
 1585              		.global	motorA
 1586              		.global	vg
 1587              		.global	vz
 1588              		.global	vr
 1589              		.global	vf
 1590              		.global	target
 1591              		.global	canMailbox
 1592              		.global	RC_CtrlData
 1593              		.global	dbus_rx_buffer
 1594              		.global	msg
 1595              		.global	hdma_usart1_rx
 1596              		.global	huart2
 1597              		.global	huart1
 1598              		.global	htim3
 1599              		.global	htim2
 1600              		.global	hcan
 1601              		.section	.bss.RC_CtrlData,"aw",%nobits
 1602              		.align	2
 1603              		.set	.LANCHOR19,. + 0
 1606              	RC_CtrlData:
 1607 0000 00000000 		.space	20
 1607      00000000 
 1607      00000000 
ARM GAS  C:\Users\Administrator.DESKTOP-24M4MSA\AppData\Local\Temp\ccOsfb0b.s 			page 47


 1607      00000000 
 1607      00000000 
 1608              		.section	.bss.arm,"aw",%nobits
 1609              		.align	2
 1610              		.set	.LANCHOR10,. + 0
 1613              	arm:
 1614 0000 00000000 		.space	16
 1614      00000000 
 1614      00000000 
 1614      00000000 
 1615              		.section	.bss.canMailbox,"aw",%nobits
 1616              		.align	2
 1617              		.set	.LANCHOR25,. + 0
 1620              	canMailbox:
 1621 0000 00000000 		.space	4
 1622              		.section	.bss.canRX,"aw",%nobits
 1623              		.align	2
 1624              		.set	.LANCHOR12,. + 0
 1627              	canRX:
 1628 0000 00000000 		.space	8
 1628      00000000 
 1629              		.section	.bss.canRxStatus,"aw",%nobits
 1630              		.set	.LANCHOR14,. + 0
 1633              	canRxStatus:
 1634 0000 00       		.space	1
 1635              		.section	.bss.canTxStatus,"aw",%nobits
 1636              		.set	.LANCHOR26,. + 0
 1639              	canTxStatus:
 1640 0000 00       		.space	1
 1641              		.section	.bss.current_rpm_A,"aw",%nobits
 1642              		.align	1
 1643              		.set	.LANCHOR15,. + 0
 1646              	current_rpm_A:
 1647 0000 0000     		.space	2
 1648              		.section	.bss.current_rpm_B,"aw",%nobits
 1649              		.align	1
 1650              		.set	.LANCHOR16,. + 0
 1653              	current_rpm_B:
 1654 0000 0000     		.space	2
 1655              		.section	.bss.current_rpm_C,"aw",%nobits
 1656              		.align	1
 1657              		.set	.LANCHOR17,. + 0
 1660              	current_rpm_C:
 1661 0000 0000     		.space	2
 1662              		.section	.bss.current_rpm_D,"aw",%nobits
 1663              		.align	1
 1664              		.set	.LANCHOR18,. + 0
 1667              	current_rpm_D:
 1668 0000 0000     		.space	2
 1669              		.section	.bss.dbus_rx_buffer,"aw",%nobits
 1670              		.align	2
 1671              		.set	.LANCHOR11,. + 0
 1674              	dbus_rx_buffer:
 1675 0000 00000000 		.space	18
 1675      00000000 
 1675      00000000 
 1675      00000000 
ARM GAS  C:\Users\Administrator.DESKTOP-24M4MSA\AppData\Local\Temp\ccOsfb0b.s 			page 48


 1675      0000
 1676              		.section	.bss.hcan,"aw",%nobits
 1677              		.align	2
 1678              		.set	.LANCHOR2,. + 0
 1681              	hcan:
 1682 0000 00000000 		.space	40
 1682      00000000 
 1682      00000000 
 1682      00000000 
 1682      00000000 
 1683              		.section	.bss.hdma_usart1_rx,"aw",%nobits
 1684              		.align	2
 1687              	hdma_usart1_rx:
 1688 0000 00000000 		.space	68
 1688      00000000 
 1688      00000000 
 1688      00000000 
 1688      00000000 
 1689              		.section	.bss.htim2,"aw",%nobits
 1690              		.align	2
 1691              		.set	.LANCHOR3,. + 0
 1694              	htim2:
 1695 0000 00000000 		.space	72
 1695      00000000 
 1695      00000000 
 1695      00000000 
 1695      00000000 
 1696              		.section	.bss.htim3,"aw",%nobits
 1697              		.align	2
 1698              		.set	.LANCHOR4,. + 0
 1701              	htim3:
 1702 0000 00000000 		.space	72
 1702      00000000 
 1702      00000000 
 1702      00000000 
 1702      00000000 
 1703              		.section	.bss.huart1,"aw",%nobits
 1704              		.align	2
 1705              		.set	.LANCHOR1,. + 0
 1708              	huart1:
 1709 0000 00000000 		.space	68
 1709      00000000 
 1709      00000000 
 1709      00000000 
 1709      00000000 
 1710              		.section	.bss.huart2,"aw",%nobits
 1711              		.align	2
 1712              		.set	.LANCHOR0,. + 0
 1715              	huart2:
 1716 0000 00000000 		.space	68
 1716      00000000 
 1716      00000000 
 1716      00000000 
 1716      00000000 
 1717              		.section	.bss.motorA,"aw",%nobits
 1718              		.align	2
 1719              		.set	.LANCHOR6,. + 0
ARM GAS  C:\Users\Administrator.DESKTOP-24M4MSA\AppData\Local\Temp\ccOsfb0b.s 			page 49


 1722              	motorA:
 1723 0000 00000000 		.space	52
 1723      00000000 
 1723      00000000 
 1723      00000000 
 1723      00000000 
 1724              		.section	.bss.motorB,"aw",%nobits
 1725              		.align	2
 1726              		.set	.LANCHOR7,. + 0
 1729              	motorB:
 1730 0000 00000000 		.space	52
 1730      00000000 
 1730      00000000 
 1730      00000000 
 1730      00000000 
 1731              		.section	.bss.motorC,"aw",%nobits
 1732              		.align	2
 1733              		.set	.LANCHOR8,. + 0
 1736              	motorC:
 1737 0000 00000000 		.space	52
 1737      00000000 
 1737      00000000 
 1737      00000000 
 1737      00000000 
 1738              		.section	.bss.motorD,"aw",%nobits
 1739              		.align	2
 1740              		.set	.LANCHOR9,. + 0
 1743              	motorD:
 1744 0000 00000000 		.space	52
 1744      00000000 
 1744      00000000 
 1744      00000000 
 1744      00000000 
 1745              		.section	.bss.rxHeader,"aw",%nobits
 1746              		.align	2
 1747              		.set	.LANCHOR13,. + 0
 1750              	rxHeader:
 1751 0000 00000000 		.space	28
 1751      00000000 
 1751      00000000 
 1751      00000000 
 1751      00000000 
 1752              		.section	.bss.txHeader,"aw",%nobits
 1753              		.align	2
 1754              		.set	.LANCHOR5,. + 0
 1757              	txHeader:
 1758 0000 00000000 		.space	24
 1758      00000000 
 1758      00000000 
 1758      00000000 
 1758      00000000 
 1759              		.section	.bss.vf,"aw",%nobits
 1760              		.align	2
 1763              	vf:
 1764 0000 00000000 		.space	4
 1765              		.section	.bss.vz,"aw",%nobits
 1766              		.align	2
ARM GAS  C:\Users\Administrator.DESKTOP-24M4MSA\AppData\Local\Temp\ccOsfb0b.s 			page 50


 1769              	vz:
 1770 0000 00000000 		.space	4
 1771              		.section	.data.msg,"aw"
 1772              		.align	2
 1773              		.set	.LANCHOR24,. + 0
 1776              	msg:
 1777 0000 04000400 		.ascii	"\004\000\004\000\004\000\004\000"
 1777      04000400 
 1778              		.section	.data.target,"aw"
 1779              		.align	1
 1782              	target:
 1783 0000 5802     		.short	600
 1784              		.section	.data.target_A,"aw"
 1785              		.align	1
 1786              		.set	.LANCHOR20,. + 0
 1789              	target_A:
 1790 0000 B004     		.short	1200
 1791              		.section	.data.target_B,"aw"
 1792              		.align	1
 1793              		.set	.LANCHOR21,. + 0
 1796              	target_B:
 1797 0000 7CFC     		.short	-900
 1798              		.section	.data.target_C,"aw"
 1799              		.align	1
 1800              		.set	.LANCHOR22,. + 0
 1803              	target_C:
 1804 0000 A8FD     		.short	-600
 1805              		.section	.data.target_D,"aw"
 1806              		.align	1
 1807              		.set	.LANCHOR23,. + 0
 1810              	target_D:
 1811 0000 5203     		.short	850
 1812              		.section	.data.vg,"aw"
 1813              		.align	2
 1816              	vg:
 1817 0000 96000000 		.word	150
 1818              		.section	.data.vr,"aw"
 1819              		.align	2
 1822              	vr:
 1823 0000 96000000 		.word	150
 1824              		.text
 1825              	.Letext0:
 1826              		.file 2 "c:\\program files (x86)\\gnu arm embedded toolchain\\10 2021.07\\arm-none-eabi\\include\\
 1827              		.file 3 "c:\\program files (x86)\\gnu arm embedded toolchain\\10 2021.07\\arm-none-eabi\\include\\
 1828              		.file 4 "Drivers/CMSIS/Device/ST/STM32F1xx/Include/stm32f103xb.h"
 1829              		.file 5 "Drivers/CMSIS/Device/ST/STM32F1xx/Include/stm32f1xx.h"
 1830              		.file 6 "Drivers/STM32F1xx_HAL_Driver/Inc/stm32f1xx_hal_def.h"
 1831              		.file 7 "Drivers/STM32F1xx_HAL_Driver/Inc/stm32f1xx_hal_rcc.h"
 1832              		.file 8 "Drivers/STM32F1xx_HAL_Driver/Inc/stm32f1xx_hal_rcc_ex.h"
 1833              		.file 9 "Drivers/STM32F1xx_HAL_Driver/Inc/stm32f1xx_hal_gpio.h"
 1834              		.file 10 "Drivers/STM32F1xx_HAL_Driver/Inc/stm32f1xx_hal_dma.h"
 1835              		.file 11 "Drivers/STM32F1xx_HAL_Driver/Inc/stm32f1xx_hal_can.h"
 1836              		.file 12 "Drivers/STM32F1xx_HAL_Driver/Inc/stm32f1xx_hal_tim.h"
 1837              		.file 13 "Drivers/STM32F1xx_HAL_Driver/Inc/stm32f1xx_hal_uart.h"
 1838              		.file 14 "private/pid.h"
 1839              		.file 15 "private/arm.h"
 1840              		.file 16 "Inc/main.h"
ARM GAS  C:\Users\Administrator.DESKTOP-24M4MSA\AppData\Local\Temp\ccOsfb0b.s 			page 51


 1841              		.file 17 "Drivers/STM32F1xx_HAL_Driver/Inc/stm32f1xx_hal_cortex.h"
 1842              		.file 18 "Drivers/STM32F1xx_HAL_Driver/Inc/stm32f1xx_hal_tim_ex.h"
 1843              		.file 19 "Drivers/STM32F1xx_HAL_Driver/Inc/stm32f1xx_hal.h"
 1844              		.file 20 "<built-in>"
ARM GAS  C:\Users\Administrator.DESKTOP-24M4MSA\AppData\Local\Temp\ccOsfb0b.s 			page 52

